Archive member included because of file (symbol)

/Applications/microchip/xc32/v1.32/bin/bin/../../lib/gcc/pic32mx/4.5.2/../../../../pic32mx/lib/libmchp_peripheral_32MX270F256D.a(int_configure_system_lib.o)
                              build/EXPLORER_16_PIC32MX270F256D/production/_ext/1472/main.o (INTConfigureSystem)
/Applications/microchip/xc32/v1.32/bin/bin/../../lib/gcc/pic32mx/4.5.2/../../../../pic32mx/lib/libmchp_peripheral_32MX270F256D.a(int_enable_interrupts_lib.o)
                              build/EXPLORER_16_PIC32MX270F256D/production/_ext/1472/main_blinky.o (INTEnableInterrupts)
/Applications/microchip/xc32/v1.32/bin/bin/../../lib/gcc/pic32mx/4.5.2/../../../../pic32mx/lib/libmchp_peripheral_32MX270F256D.a(int_disable_interrupts_lib.o)
                              build/EXPLORER_16_PIC32MX270F256D/production/_ext/1472/main.o (INTDisableInterrupts)
/Applications/microchip/xc32/v1.32/bin/bin/../../lib/gcc/pic32mx/4.5.2/../../../../pic32mx/lib/libmchp_peripheral_32MX270F256D.a(int_restore_interrupts_lib.o)
                              build/EXPLORER_16_PIC32MX270F256D/production/_ext/1472/main.o (INTRestoreInterrupts)
/Applications/microchip/xc32/v1.32/bin/bin/../../lib/gcc/pic32mx/4.5.2/../../../../pic32mx/lib/libmchp_peripheral_32MX270F256D.a(int_tbl_lib.o)
                              build/EXPLORER_16_PIC32MX270F256D/production/_ext/821501661/serial.o (INTEnable)
/Applications/microchip/xc32/v1.32/bin/bin/../../lib/gcc/pic32mx/4.5.2/../../../../pic32mx/lib/libmchp_peripheral_32MX270F256D.a(uart_lib.o)
                              build/EXPLORER_16_PIC32MX270F256D/production/_ext/821501661/serial.o (UARTEnable)
/Applications/microchip/xc32/v1.32/bin/bin/../../lib/gcc/pic32mx/4.5.2/../../../../pic32mx/lib/libpic32.a(memcmp.o)
                              build/EXPLORER_16_PIC32MX270F256D/production/_ext/332309696/port.o (memcmp)
/Applications/microchip/xc32/v1.32/bin/bin/../../lib/gcc/pic32mx/4.5.2/../../../../pic32mx/lib/libpic32.a(memcpy.o)
                              build/EXPLORER_16_PIC32MX270F256D/production/_ext/449926602/queue.o (memcpy)
/Applications/microchip/xc32/v1.32/bin/bin/../../lib/gcc/pic32mx/4.5.2/../../../../pic32mx/lib/libpic32.a(memset.o)
                              build/EXPLORER_16_PIC32MX270F256D/production/_ext/332309696/port.o (memset)
/Applications/microchip/xc32/v1.32/bin/bin/../../lib/gcc/pic32mx/4.5.2/../../../../pic32mx/lib/libpic32.a(default-bootstrap-exception-handler.o)
                              /Applications/microchip/xc32/v1.32/bin/bin/../../lib/gcc/pic32mx/4.5.2/../../../../pic32mx/lib/./proc/32MX270F256D/crt0_mips32r2.o (_bootstrap_exception_handler)
/Applications/microchip/xc32/v1.32/bin/bin/../../lib/gcc/pic32mx/4.5.2/../../../../pic32mx/lib/libpic32.a(default-on-reset.o)
                              /Applications/microchip/xc32/v1.32/bin/bin/../../lib/gcc/pic32mx/4.5.2/../../../../pic32mx/lib/./proc/32MX270F256D/crt0_mips32r2.o (_on_reset)
/Applications/microchip/xc32/v1.32/bin/bin/../../lib/gcc/pic32mx/4.5.2/../../../../pic32mx/lib/libpic32.a(default-on-bootstrap.o)
                              /Applications/microchip/xc32/v1.32/bin/bin/../../lib/gcc/pic32mx/4.5.2/../../../../pic32mx/lib/./proc/32MX270F256D/crt0_mips32r2.o (_on_bootstrap)
/Applications/microchip/xc32/v1.32/bin/bin/../../lib/gcc/pic32mx/4.5.2/../../../../pic32mx/lib/libpic32.a(default-nmi-handler.o)
                              /Applications/microchip/xc32/v1.32/bin/bin/../../lib/gcc/pic32mx/4.5.2/../../../../pic32mx/lib/./proc/32MX270F256D/crt0_mips32r2.o (_nmi_handler)
/Applications/microchip/xc32/v1.32/bin/bin/../../lib/gcc/pic32mx/4.5.2/../../../../pic32mx/lib/libpic32.a(general-exception.o)
                              /Applications/microchip/xc32/v1.32/bin/bin/../../lib/gcc/pic32mx/4.5.2/../../../../pic32mx/lib/./proc/32MX270F256D/crt0_mips32r2.o (_general_exception_context)
/Applications/microchip/xc32/v1.32/bin/bin/../../lib/gcc/pic32mx/4.5.2/../../../../pic32mx/lib/libpic32.a(vector0.o)
                              /Applications/microchip/xc32/v1.32/bin/bin/../../lib/gcc/pic32mx/4.5.2/../../../../pic32mx/lib/./proc/32MX270F256D/default_isr_vectors.o (__vector_dispatch_0)
/Applications/microchip/xc32/v1.32/bin/bin/../../lib/gcc/pic32mx/4.5.2/../../../../pic32mx/lib/libpic32.a(vector2.o)
                              /Applications/microchip/xc32/v1.32/bin/bin/../../lib/gcc/pic32mx/4.5.2/../../../../pic32mx/lib/./proc/32MX270F256D/default_isr_vectors.o (__vector_dispatch_2)
/Applications/microchip/xc32/v1.32/bin/bin/../../lib/gcc/pic32mx/4.5.2/../../../../pic32mx/lib/libpic32.a(vector3.o)
                              /Applications/microchip/xc32/v1.32/bin/bin/../../lib/gcc/pic32mx/4.5.2/../../../../pic32mx/lib/./proc/32MX270F256D/default_isr_vectors.o (__vector_dispatch_3)
/Applications/microchip/xc32/v1.32/bin/bin/../../lib/gcc/pic32mx/4.5.2/../../../../pic32mx/lib/libpic32.a(vector5.o)
                              /Applications/microchip/xc32/v1.32/bin/bin/../../lib/gcc/pic32mx/4.5.2/../../../../pic32mx/lib/./proc/32MX270F256D/default_isr_vectors.o (__vector_dispatch_5)
/Applications/microchip/xc32/v1.32/bin/bin/../../lib/gcc/pic32mx/4.5.2/../../../../pic32mx/lib/libpic32.a(vector6.o)
                              /Applications/microchip/xc32/v1.32/bin/bin/../../lib/gcc/pic32mx/4.5.2/../../../../pic32mx/lib/./proc/32MX270F256D/default_isr_vectors.o (__vector_dispatch_6)
/Applications/microchip/xc32/v1.32/bin/bin/../../lib/gcc/pic32mx/4.5.2/../../../../pic32mx/lib/libpic32.a(vector7.o)
                              /Applications/microchip/xc32/v1.32/bin/bin/../../lib/gcc/pic32mx/4.5.2/../../../../pic32mx/lib/./proc/32MX270F256D/default_isr_vectors.o (__vector_dispatch_7)
/Applications/microchip/xc32/v1.32/bin/bin/../../lib/gcc/pic32mx/4.5.2/../../../../pic32mx/lib/libpic32.a(vector9.o)
                              /Applications/microchip/xc32/v1.32/bin/bin/../../lib/gcc/pic32mx/4.5.2/../../../../pic32mx/lib/./proc/32MX270F256D/default_isr_vectors.o (__vector_dispatch_9)
/Applications/microchip/xc32/v1.32/bin/bin/../../lib/gcc/pic32mx/4.5.2/../../../../pic32mx/lib/libpic32.a(vector10.o)
                              /Applications/microchip/xc32/v1.32/bin/bin/../../lib/gcc/pic32mx/4.5.2/../../../../pic32mx/lib/./proc/32MX270F256D/default_isr_vectors.o (__vector_dispatch_10)
/Applications/microchip/xc32/v1.32/bin/bin/../../lib/gcc/pic32mx/4.5.2/../../../../pic32mx/lib/libpic32.a(vector11.o)
                              /Applications/microchip/xc32/v1.32/bin/bin/../../lib/gcc/pic32mx/4.5.2/../../../../pic32mx/lib/./proc/32MX270F256D/default_isr_vectors.o (__vector_dispatch_11)
/Applications/microchip/xc32/v1.32/bin/bin/../../lib/gcc/pic32mx/4.5.2/../../../../pic32mx/lib/libpic32.a(vector13.o)
                              /Applications/microchip/xc32/v1.32/bin/bin/../../lib/gcc/pic32mx/4.5.2/../../../../pic32mx/lib/./proc/32MX270F256D/default_isr_vectors.o (__vector_dispatch_13)
/Applications/microchip/xc32/v1.32/bin/bin/../../lib/gcc/pic32mx/4.5.2/../../../../pic32mx/lib/libpic32.a(vector14.o)
                              /Applications/microchip/xc32/v1.32/bin/bin/../../lib/gcc/pic32mx/4.5.2/../../../../pic32mx/lib/./proc/32MX270F256D/default_isr_vectors.o (__vector_dispatch_14)
/Applications/microchip/xc32/v1.32/bin/bin/../../lib/gcc/pic32mx/4.5.2/../../../../pic32mx/lib/libpic32.a(vector15.o)
                              /Applications/microchip/xc32/v1.32/bin/bin/../../lib/gcc/pic32mx/4.5.2/../../../../pic32mx/lib/./proc/32MX270F256D/default_isr_vectors.o (__vector_dispatch_15)
/Applications/microchip/xc32/v1.32/bin/bin/../../lib/gcc/pic32mx/4.5.2/../../../../pic32mx/lib/libpic32.a(vector17.o)
                              /Applications/microchip/xc32/v1.32/bin/bin/../../lib/gcc/pic32mx/4.5.2/../../../../pic32mx/lib/./proc/32MX270F256D/default_isr_vectors.o (__vector_dispatch_17)
/Applications/microchip/xc32/v1.32/bin/bin/../../lib/gcc/pic32mx/4.5.2/../../../../pic32mx/lib/libpic32.a(vector18.o)
                              /Applications/microchip/xc32/v1.32/bin/bin/../../lib/gcc/pic32mx/4.5.2/../../../../pic32mx/lib/./proc/32MX270F256D/default_isr_vectors.o (__vector_dispatch_18)
/Applications/microchip/xc32/v1.32/bin/bin/../../lib/gcc/pic32mx/4.5.2/../../../../pic32mx/lib/libpic32.a(vector19.o)
                              /Applications/microchip/xc32/v1.32/bin/bin/../../lib/gcc/pic32mx/4.5.2/../../../../pic32mx/lib/./proc/32MX270F256D/default_isr_vectors.o (__vector_dispatch_19)
/Applications/microchip/xc32/v1.32/bin/bin/../../lib/gcc/pic32mx/4.5.2/../../../../pic32mx/lib/libpic32.a(vector20.o)
                              /Applications/microchip/xc32/v1.32/bin/bin/../../lib/gcc/pic32mx/4.5.2/../../../../pic32mx/lib/./proc/32MX270F256D/default_isr_vectors.o (__vector_dispatch_20)
/Applications/microchip/xc32/v1.32/bin/bin/../../lib/gcc/pic32mx/4.5.2/../../../../pic32mx/lib/libpic32.a(vector21.o)
                              /Applications/microchip/xc32/v1.32/bin/bin/../../lib/gcc/pic32mx/4.5.2/../../../../pic32mx/lib/./proc/32MX270F256D/default_isr_vectors.o (__vector_dispatch_21)
/Applications/microchip/xc32/v1.32/bin/bin/../../lib/gcc/pic32mx/4.5.2/../../../../pic32mx/lib/libpic32.a(vector22.o)
                              /Applications/microchip/xc32/v1.32/bin/bin/../../lib/gcc/pic32mx/4.5.2/../../../../pic32mx/lib/./proc/32MX270F256D/default_isr_vectors.o (__vector_dispatch_22)
/Applications/microchip/xc32/v1.32/bin/bin/../../lib/gcc/pic32mx/4.5.2/../../../../pic32mx/lib/libpic32.a(vector23.o)
                              /Applications/microchip/xc32/v1.32/bin/bin/../../lib/gcc/pic32mx/4.5.2/../../../../pic32mx/lib/./proc/32MX270F256D/default_isr_vectors.o (__vector_dispatch_23)
/Applications/microchip/xc32/v1.32/bin/bin/../../lib/gcc/pic32mx/4.5.2/../../../../pic32mx/lib/libpic32.a(vector24.o)
                              /Applications/microchip/xc32/v1.32/bin/bin/../../lib/gcc/pic32mx/4.5.2/../../../../pic32mx/lib/./proc/32MX270F256D/default_isr_vectors.o (__vector_dispatch_24)
/Applications/microchip/xc32/v1.32/bin/bin/../../lib/gcc/pic32mx/4.5.2/../../../../pic32mx/lib/libpic32.a(vector25.o)
                              /Applications/microchip/xc32/v1.32/bin/bin/../../lib/gcc/pic32mx/4.5.2/../../../../pic32mx/lib/./proc/32MX270F256D/default_isr_vectors.o (__vector_dispatch_25)
/Applications/microchip/xc32/v1.32/bin/bin/../../lib/gcc/pic32mx/4.5.2/../../../../pic32mx/lib/libpic32.a(vector26.o)
                              /Applications/microchip/xc32/v1.32/bin/bin/../../lib/gcc/pic32mx/4.5.2/../../../../pic32mx/lib/./proc/32MX270F256D/default_isr_vectors.o (__vector_dispatch_26)
/Applications/microchip/xc32/v1.32/bin/bin/../../lib/gcc/pic32mx/4.5.2/../../../../pic32mx/lib/libpic32.a(vector27.o)
                              /Applications/microchip/xc32/v1.32/bin/bin/../../lib/gcc/pic32mx/4.5.2/../../../../pic32mx/lib/./proc/32MX270F256D/default_isr_vectors.o (__vector_dispatch_27)
/Applications/microchip/xc32/v1.32/bin/bin/../../lib/gcc/pic32mx/4.5.2/../../../../pic32mx/lib/libpic32.a(vector28.o)
                              /Applications/microchip/xc32/v1.32/bin/bin/../../lib/gcc/pic32mx/4.5.2/../../../../pic32mx/lib/./proc/32MX270F256D/default_isr_vectors.o (__vector_dispatch_28)
/Applications/microchip/xc32/v1.32/bin/bin/../../lib/gcc/pic32mx/4.5.2/../../../../pic32mx/lib/libpic32.a(vector29.o)
                              /Applications/microchip/xc32/v1.32/bin/bin/../../lib/gcc/pic32mx/4.5.2/../../../../pic32mx/lib/./proc/32MX270F256D/default_isr_vectors.o (__vector_dispatch_29)
/Applications/microchip/xc32/v1.32/bin/bin/../../lib/gcc/pic32mx/4.5.2/../../../../pic32mx/lib/libpic32.a(vector30.o)
                              /Applications/microchip/xc32/v1.32/bin/bin/../../lib/gcc/pic32mx/4.5.2/../../../../pic32mx/lib/./proc/32MX270F256D/default_isr_vectors.o (__vector_dispatch_30)
/Applications/microchip/xc32/v1.32/bin/bin/../../lib/gcc/pic32mx/4.5.2/../../../../pic32mx/lib/libpic32.a(vector31.o)
                              /Applications/microchip/xc32/v1.32/bin/bin/../../lib/gcc/pic32mx/4.5.2/../../../../pic32mx/lib/./proc/32MX270F256D/default_isr_vectors.o (__vector_dispatch_31)
/Applications/microchip/xc32/v1.32/bin/bin/../../lib/gcc/pic32mx/4.5.2/../../../../pic32mx/lib/libpic32.a(vector33.o)
                              /Applications/microchip/xc32/v1.32/bin/bin/../../lib/gcc/pic32mx/4.5.2/../../../../pic32mx/lib/./proc/32MX270F256D/default_isr_vectors.o (__vector_dispatch_33)
/Applications/microchip/xc32/v1.32/bin/bin/../../lib/gcc/pic32mx/4.5.2/../../../../pic32mx/lib/libpic32.a(vector34.o)
                              /Applications/microchip/xc32/v1.32/bin/bin/../../lib/gcc/pic32mx/4.5.2/../../../../pic32mx/lib/./proc/32MX270F256D/default_isr_vectors.o (__vector_dispatch_34)
/Applications/microchip/xc32/v1.32/bin/bin/../../lib/gcc/pic32mx/4.5.2/../../../../pic32mx/lib/libpic32.a(vector35.o)
                              /Applications/microchip/xc32/v1.32/bin/bin/../../lib/gcc/pic32mx/4.5.2/../../../../pic32mx/lib/./proc/32MX270F256D/default_isr_vectors.o (__vector_dispatch_35)
/Applications/microchip/xc32/v1.32/bin/bin/../../lib/gcc/pic32mx/4.5.2/../../../../pic32mx/lib/libpic32.a(vector36.o)
                              /Applications/microchip/xc32/v1.32/bin/bin/../../lib/gcc/pic32mx/4.5.2/../../../../pic32mx/lib/./proc/32MX270F256D/default_isr_vectors.o (__vector_dispatch_36)
/Applications/microchip/xc32/v1.32/bin/bin/../../lib/gcc/pic32mx/4.5.2/../../../../pic32mx/lib/libpic32.a(vector37.o)
                              /Applications/microchip/xc32/v1.32/bin/bin/../../lib/gcc/pic32mx/4.5.2/../../../../pic32mx/lib/./proc/32MX270F256D/default_isr_vectors.o (__vector_dispatch_37)
/Applications/microchip/xc32/v1.32/bin/bin/../../lib/gcc/pic32mx/4.5.2/../../../../pic32mx/lib/libpic32.a(vector38.o)
                              /Applications/microchip/xc32/v1.32/bin/bin/../../lib/gcc/pic32mx/4.5.2/../../../../pic32mx/lib/./proc/32MX270F256D/default_isr_vectors.o (__vector_dispatch_38)
/Applications/microchip/xc32/v1.32/bin/bin/../../lib/gcc/pic32mx/4.5.2/../../../../pic32mx/lib/libpic32.a(vector39.o)
                              /Applications/microchip/xc32/v1.32/bin/bin/../../lib/gcc/pic32mx/4.5.2/../../../../pic32mx/lib/./proc/32MX270F256D/default_isr_vectors.o (__vector_dispatch_39)
/Applications/microchip/xc32/v1.32/bin/bin/../../lib/gcc/pic32mx/4.5.2/../../../../pic32mx/lib/libpic32.a(vector40.o)
                              /Applications/microchip/xc32/v1.32/bin/bin/../../lib/gcc/pic32mx/4.5.2/../../../../pic32mx/lib/./proc/32MX270F256D/default_isr_vectors.o (__vector_dispatch_40)
/Applications/microchip/xc32/v1.32/bin/bin/../../lib/gcc/pic32mx/4.5.2/../../../../pic32mx/lib/libpic32.a(vector41.o)
                              /Applications/microchip/xc32/v1.32/bin/bin/../../lib/gcc/pic32mx/4.5.2/../../../../pic32mx/lib/./proc/32MX270F256D/default_isr_vectors.o (__vector_dispatch_41)
/Applications/microchip/xc32/v1.32/bin/bin/../../lib/gcc/pic32mx/4.5.2/../../../../pic32mx/lib/libpic32.a(vector42.o)
                              /Applications/microchip/xc32/v1.32/bin/bin/../../lib/gcc/pic32mx/4.5.2/../../../../pic32mx/lib/./proc/32MX270F256D/default_isr_vectors.o (__vector_dispatch_42)
/Applications/microchip/xc32/v1.32/bin/bin/../../lib/gcc/pic32mx/4.5.2/../../../../pic32mx/lib/libpic32.a(vector43.o)
                              /Applications/microchip/xc32/v1.32/bin/bin/../../lib/gcc/pic32mx/4.5.2/../../../../pic32mx/lib/./proc/32MX270F256D/default_isr_vectors.o (__vector_dispatch_43)
/Applications/microchip/xc32/v1.32/bin/bin/../../lib/gcc/pic32mx/4.5.2/../../../../pic32mx/lib/libpic32.a(vector44.o)
                              /Applications/microchip/xc32/v1.32/bin/bin/../../lib/gcc/pic32mx/4.5.2/../../../../pic32mx/lib/./proc/32MX270F256D/default_isr_vectors.o (__vector_dispatch_44)
/Applications/microchip/xc32/v1.32/bin/bin/../../lib/gcc/pic32mx/4.5.2/../../../../pic32mx/lib/libpic32.a(vector45.o)
                              /Applications/microchip/xc32/v1.32/bin/bin/../../lib/gcc/pic32mx/4.5.2/../../../../pic32mx/lib/./proc/32MX270F256D/default_isr_vectors.o (__vector_dispatch_45)
/Applications/microchip/xc32/v1.32/bin/bin/../../lib/gcc/pic32mx/4.5.2/../../../../pic32mx/lib/libpic32.a(vector46.o)
                              /Applications/microchip/xc32/v1.32/bin/bin/../../lib/gcc/pic32mx/4.5.2/../../../../pic32mx/lib/./proc/32MX270F256D/default_isr_vectors.o (__vector_dispatch_46)
/Applications/microchip/xc32/v1.32/bin/bin/../../lib/gcc/pic32mx/4.5.2/../../../../pic32mx/lib/libpic32.a(vector47.o)
                              /Applications/microchip/xc32/v1.32/bin/bin/../../lib/gcc/pic32mx/4.5.2/../../../../pic32mx/lib/./proc/32MX270F256D/default_isr_vectors.o (__vector_dispatch_47)
/Applications/microchip/xc32/v1.32/bin/bin/../../lib/gcc/pic32mx/4.5.2/../../../../pic32mx/lib/libpic32.a(vector48.o)
                              /Applications/microchip/xc32/v1.32/bin/bin/../../lib/gcc/pic32mx/4.5.2/../../../../pic32mx/lib/./proc/32MX270F256D/default_isr_vectors.o (__vector_dispatch_48)
/Applications/microchip/xc32/v1.32/bin/bin/../../lib/gcc/pic32mx/4.5.2/../../../../pic32mx/lib/libpic32.a(vector49.o)
                              /Applications/microchip/xc32/v1.32/bin/bin/../../lib/gcc/pic32mx/4.5.2/../../../../pic32mx/lib/./proc/32MX270F256D/default_isr_vectors.o (__vector_dispatch_49)
/Applications/microchip/xc32/v1.32/bin/bin/../../lib/gcc/pic32mx/4.5.2/../../../../pic32mx/lib/libpic32.a(vector50.o)
                              /Applications/microchip/xc32/v1.32/bin/bin/../../lib/gcc/pic32mx/4.5.2/../../../../pic32mx/lib/./proc/32MX270F256D/default_isr_vectors.o (__vector_dispatch_50)
/Applications/microchip/xc32/v1.32/bin/bin/../../lib/gcc/pic32mx/4.5.2/../../../../pic32mx/lib/libpic32.a(vector51.o)
                              /Applications/microchip/xc32/v1.32/bin/bin/../../lib/gcc/pic32mx/4.5.2/../../../../pic32mx/lib/./proc/32MX270F256D/default_isr_vectors.o (__vector_dispatch_51)
/Applications/microchip/xc32/v1.32/bin/bin/../../lib/gcc/pic32mx/4.5.2/../../../../pic32mx/lib/libpic32.a(vector52.o)
                              /Applications/microchip/xc32/v1.32/bin/bin/../../lib/gcc/pic32mx/4.5.2/../../../../pic32mx/lib/./proc/32MX270F256D/default_isr_vectors.o (__vector_dispatch_52)
/Applications/microchip/xc32/v1.32/bin/bin/../../lib/gcc/pic32mx/4.5.2/../../../../pic32mx/lib/libpic32.a(vector53.o)
                              /Applications/microchip/xc32/v1.32/bin/bin/../../lib/gcc/pic32mx/4.5.2/../../../../pic32mx/lib/./proc/32MX270F256D/default_isr_vectors.o (__vector_dispatch_53)
/Applications/microchip/xc32/v1.32/bin/bin/../../lib/gcc/pic32mx/4.5.2/../../../../pic32mx/lib/libpic32.a(vector54.o)
                              /Applications/microchip/xc32/v1.32/bin/bin/../../lib/gcc/pic32mx/4.5.2/../../../../pic32mx/lib/./proc/32MX270F256D/default_isr_vectors.o (__vector_dispatch_54)
/Applications/microchip/xc32/v1.32/bin/bin/../../lib/gcc/pic32mx/4.5.2/../../../../pic32mx/lib/libpic32.a(vector55.o)
                              /Applications/microchip/xc32/v1.32/bin/bin/../../lib/gcc/pic32mx/4.5.2/../../../../pic32mx/lib/./proc/32MX270F256D/default_isr_vectors.o (__vector_dispatch_55)
/Applications/microchip/xc32/v1.32/bin/bin/../../lib/gcc/pic32mx/4.5.2/../../../../pic32mx/lib/libpic32.a(vector56.o)
                              /Applications/microchip/xc32/v1.32/bin/bin/../../lib/gcc/pic32mx/4.5.2/../../../../pic32mx/lib/./proc/32MX270F256D/default_isr_vectors.o (__vector_dispatch_56)
/Applications/microchip/xc32/v1.32/bin/bin/../../lib/gcc/pic32mx/4.5.2/../../../../pic32mx/lib/libpic32.a(vector57.o)
                              /Applications/microchip/xc32/v1.32/bin/bin/../../lib/gcc/pic32mx/4.5.2/../../../../pic32mx/lib/./proc/32MX270F256D/default_isr_vectors.o (__vector_dispatch_57)
/Applications/microchip/xc32/v1.32/bin/bin/../../lib/gcc/pic32mx/4.5.2/../../../../pic32mx/lib/libpic32.a(vector58.o)
                              /Applications/microchip/xc32/v1.32/bin/bin/../../lib/gcc/pic32mx/4.5.2/../../../../pic32mx/lib/./proc/32MX270F256D/default_isr_vectors.o (__vector_dispatch_58)
/Applications/microchip/xc32/v1.32/bin/bin/../../lib/gcc/pic32mx/4.5.2/../../../../pic32mx/lib/libpic32.a(vector59.o)
                              /Applications/microchip/xc32/v1.32/bin/bin/../../lib/gcc/pic32mx/4.5.2/../../../../pic32mx/lib/./proc/32MX270F256D/default_isr_vectors.o (__vector_dispatch_59)
/Applications/microchip/xc32/v1.32/bin/bin/../../lib/gcc/pic32mx/4.5.2/../../../../pic32mx/lib/libpic32.a(vector60.o)
                              /Applications/microchip/xc32/v1.32/bin/bin/../../lib/gcc/pic32mx/4.5.2/../../../../pic32mx/lib/./proc/32MX270F256D/default_isr_vectors.o (__vector_dispatch_60)
/Applications/microchip/xc32/v1.32/bin/bin/../../lib/gcc/pic32mx/4.5.2/../../../../pic32mx/lib/libpic32.a(vector61.o)
                              /Applications/microchip/xc32/v1.32/bin/bin/../../lib/gcc/pic32mx/4.5.2/../../../../pic32mx/lib/./proc/32MX270F256D/default_isr_vectors.o (__vector_dispatch_61)
/Applications/microchip/xc32/v1.32/bin/bin/../../lib/gcc/pic32mx/4.5.2/../../../../pic32mx/lib/libpic32.a(vector62.o)
                              /Applications/microchip/xc32/v1.32/bin/bin/../../lib/gcc/pic32mx/4.5.2/../../../../pic32mx/lib/./proc/32MX270F256D/default_isr_vectors.o (__vector_dispatch_62)
/Applications/microchip/xc32/v1.32/bin/bin/../../lib/gcc/pic32mx/4.5.2/../../../../pic32mx/lib/libpic32.a(vector63.o)
                              /Applications/microchip/xc32/v1.32/bin/bin/../../lib/gcc/pic32mx/4.5.2/../../../../pic32mx/lib/./proc/32MX270F256D/default_isr_vectors.o (__vector_dispatch_63)
/Applications/microchip/xc32/v1.32/bin/bin/../../lib/gcc/pic32mx/4.5.2/../../../../pic32mx/lib/libpic32.a(defaultinterrupt.o)
                              /Applications/microchip/xc32/v1.32/bin/bin/../../lib/gcc/pic32mx/4.5.2/../../../../pic32mx/lib/libpic32.a(vector0.o) (_DefaultInterrupt)
/Applications/microchip/xc32/v1.32/bin/bin/../../lib/gcc/pic32mx/4.5.2/../../../../pic32mx/lib/libc.a(putchar.o)
                              build/EXPLORER_16_PIC32MX270F256D/production/_ext/1472/printf-stdarg.o (putchar)
/Applications/microchip/xc32/v1.32/bin/bin/../../lib/gcc/pic32mx/4.5.2/../../../../pic32mx/lib/libc.a(sprintf_cdnopuxX.eo)
                              build/EXPLORER_16_PIC32MX270F256D/production/_ext/1472/main_full.o (_sprintf_cdnopuxX)
/Applications/microchip/xc32/v1.32/bin/bin/../../lib/gcc/pic32mx/4.5.2/../../../../pic32mx/lib/libc.a(_iob.o)
                              /Applications/microchip/xc32/v1.32/bin/bin/../../lib/gcc/pic32mx/4.5.2/../../../../pic32mx/lib/libc.a(putchar.o) (_iob)
/Applications/microchip/xc32/v1.32/bin/bin/../../lib/gcc/pic32mx/4.5.2/../../../../pic32mx/lib/libc.a(_fputc_simple.o)
                              /Applications/microchip/xc32/v1.32/bin/bin/../../lib/gcc/pic32mx/4.5.2/../../../../pic32mx/lib/libc.a(putchar.o) (fputc)
/Applications/microchip/xc32/v1.32/bin/bin/../../lib/gcc/pic32mx/4.5.2/../../../../pic32mx/lib/libc.a(doprnt_cdnopuxX.eo)
                              /Applications/microchip/xc32/v1.32/bin/bin/../../lib/gcc/pic32mx/4.5.2/../../../../pic32mx/lib/libc.a(sprintf_cdnopuxX.eo) (_vfprintf_cdnopuxX)
/Applications/microchip/xc32/v1.32/bin/bin/../../lib/gcc/pic32mx/4.5.2/../../../../pic32mx/lib/libc.a(_flsbuf_simple.o)
                              /Applications/microchip/xc32/v1.32/bin/bin/../../lib/gcc/pic32mx/4.5.2/../../../../pic32mx/lib/libc.a(_fputc_simple.o) (_flsbuf)
/Applications/microchip/xc32/v1.32/bin/bin/../../lib/gcc/pic32mx/4.5.2/../../../../pic32mx/lib/libc.a(ctype.o)
                              /Applications/microchip/xc32/v1.32/bin/bin/../../lib/gcc/pic32mx/4.5.2/../../../../pic32mx/lib/libc.a(doprnt_cdnopuxX.eo) (_ctype)
/Applications/microchip/xc32/v1.32/bin/bin/../../lib/gcc/pic32mx/4.5.2/libgcc.a(_udivdi3.o)
                              /Applications/microchip/xc32/v1.32/bin/bin/../../lib/gcc/pic32mx/4.5.2/../../../../pic32mx/lib/libc.a(doprnt_cdnopuxX.eo) (__udivdi3)
/Applications/microchip/xc32/v1.32/bin/bin/../../lib/gcc/pic32mx/4.5.2/libgcc.a(_umoddi3.o)
                              /Applications/microchip/xc32/v1.32/bin/bin/../../lib/gcc/pic32mx/4.5.2/../../../../pic32mx/lib/libc.a(doprnt_cdnopuxX.eo) (__umoddi3)

Allocating common symbols
Common symbol       size              file

xHighPriorityTask   0x4               build/EXPLORER_16_PIC32MX270F256D/production/_ext/1163846883/QPeek.o
xMediumPriorityTask
                    0x4               build/EXPLORER_16_PIC32MX270F256D/production/_ext/1163846883/QPeek.o
xHighPriorityNormallyEmptyTask2
                    0x4               build/EXPLORER_16_PIC32MX270F256D/production/_ext/1163846883/IntQueue.o
xHighPriorityNormallyFullTask1
                    0x4               build/EXPLORER_16_PIC32MX270F256D/production/_ext/1163846883/IntQueue.o
xHighPriorityNormallyEmptyTask1
                    0x4               build/EXPLORER_16_PIC32MX270F256D/production/_ext/1163846883/IntQueue.o
xHighestPriorityTask
                    0x4               build/EXPLORER_16_PIC32MX270F256D/production/_ext/1163846883/QPeek.o
xLCDQueue           0x4               build/EXPLORER_16_PIC32MX270F256D/production/_ext/1472/lcd.o
xHighPriorityNormallyFullTask2
                    0x4               build/EXPLORER_16_PIC32MX270F256D/production/_ext/1163846883/IntQueue.o

Microchip PIC32 Memory-Usage Report

kseg0 Program-Memory Usage
section                    address  length [bytes]      (dec)  Description
-------                 ----------  -------------------------  -----------
.text                   0x9d000000         0x4248       16968  App's exec code 
.text._vfprintf_cdnopux 0x9d004248          0xae8        2792   
.text                   0x9d004d30         0x1bb4        7092  App's exec code 
.rodata                 0x9d0068e4          0x558        1368  Read-only const 
.text                   0x9d006e3c         0x2a60       10848  App's exec code 
.dinit                  0x9d00989c          0x260         608   
.text                   0x9d009afc          0xa80        2688  App's exec code 
.text.fputc             0x9d00a57c          0x15c         348   
.text                   0x9d00a6d8          0x144         324  App's exec code 
.text._flsbuf           0x9d00a81c          0x12c         300   
.text                   0x9d00a948          0x128         296  App's exec code 
.rodata                 0x9d00aa70          0x104         260  Read-only const 
.text                   0x9d00ab74           0xf0         240  App's exec code 
.text.general_exception 0x9d00ac64           0xdc         220   
.text                   0x9d00ad40           0xd4         212  App's exec code 
.rodata                 0x9d00ae18           0xd0         208  Read-only const 
.text                   0x9d00aee8           0xc8         200  App's exec code 
.rodata                 0x9d00afb0           0xc8         200  Read-only const 
.text                   0x9d00b078          0x1d4         468  App's exec code 
.text.UARTSetDataRate   0x9d00b24c           0x90         144   
.text.UARTEnable        0x9d00b2dc           0x80         128   
.text                   0x9d00b35c           0x6c         108  App's exec code 
.text._sprintf_cdnopuxX 0x9d00b3c8           0x68         104   
.text.UARTGetDataRate   0x9d00b430           0x5c          92   
.text.INTEnable         0x9d00b48c           0x58          88   
.text.main_entry        0x9d00b4e4           0x4c          76   
.rodata                 0x9d00b530           0x48          72  Read-only const 
.text._bootstrap_except 0x9d00b578           0x48          72   
.text                   0x9d00b5c0           0x44          68  App's exec code 
.rodata                 0x9d00b604           0x40          64  Read-only const 
.text.INTSetVectorPrior 0x9d00b644           0x3c          60   
.text.INTSetVectorSubPr 0x9d00b680           0x3c          60   
.text.UARTConfigure     0x9d00b6bc           0x3c          60   
.text.UARTSetAddress    0x9d00b6f8           0x3c          60   
.text.UARTWatchForAddre 0x9d00b734           0x38          56   
.vector_default         0x9d00b76c           0x38          56   
.rodata                 0x9d00b7a4           0x64         100  Read-only const 
.text.INTConfigureSyste 0x9d00b808           0x30          48   
.text.INTGetVectorPrior 0x9d00b838           0x30          48   
.text.INTGetVectorSubPr 0x9d00b868           0x30          48   
.rodata                 0x9d00b898           0x2c          44  Read-only const 
.text.INTClearFlag      0x9d00b8c4           0x2c          44   
.text.INTSetFlag        0x9d00b8f0           0x2c          44   
.text.INTGetFlag        0x9d00b91c           0x2c          44   
.text.INTGetEnable      0x9d00b948           0x2c          44   
.text.UARTSetFifoMode   0x9d00b974           0x28          40   
.text.UARTSetLineContro 0x9d00b99c           0x28          40   
.rodata                 0x9d00b9c4           0x88         136  Read-only const 
.text.putchar           0x9d00ba4c           0x20          32   
.text.INTRestoreInterru 0x9d00ba6c           0x1c          28   
.rodata                 0x9d00ba88           0x30          48  Read-only const 
.text                   0x9d00bab8           0x18          24  App's exec code 
.rodata                 0x9d00bad0           0x30          48  Read-only const 
.text.INTEnableInterrup 0x9d00bb00            0x8           8   
.text.INTDisableInterru 0x9d00bb08            0x8           8   
.rodata                 0x9d00bb10            0x8           8  Read-only const 
.text._on_reset         0x9d00bb18            0x8           8   
.text._on_bootstrap     0x9d00bb20            0x8           8   
      Total kseg0_program_mem used  :      0xbb24       47908  18.6% of 0x3f000

kseg0 Boot-Memory Usage
section                    address  length [bytes]      (dec)  Description
-------                 ----------  -------------------------  -----------
         Total kseg0_boot_mem used  :           0           0  

Exception-Memory Usage 
section                    address  length [bytes]      (dec)  Description
-------                 ----------  -------------------------  -----------
.app_excpt              0x9d03f180           0x10          16  General-Exception 
.vector_0               0x9d03f200            0x8           8  Interrupt Vector 0 
.vector_1               0x9d03f220            0x8           8  Interrupt Vector 1 
.vector_2               0x9d03f240            0x8           8  Interrupt Vector 2 
.vector_3               0x9d03f260            0x8           8  Interrupt Vector 3 
.vector_4               0x9d03f280            0x8           8  Interrupt Vector 4 
.vector_5               0x9d03f2a0            0x8           8  Interrupt Vector 5 
.vector_6               0x9d03f2c0            0x8           8  Interrupt Vector 6 
.vector_7               0x9d03f2e0            0x8           8  Interrupt Vector 7 
.vector_8               0x9d03f300            0x8           8  Interrupt Vector 8 
.vector_9               0x9d03f320            0x8           8  Interrupt Vector 9 
.vector_10              0x9d03f340            0x8           8  Interrupt Vector 10 
.vector_11              0x9d03f360            0x8           8  Interrupt Vector 11 
.vector_12              0x9d03f380            0x8           8  Interrupt Vector 12 
.vector_13              0x9d03f3a0            0x8           8  Interrupt Vector 13 
.vector_14              0x9d03f3c0            0x8           8  Interrupt Vector 14 
.vector_15              0x9d03f3e0            0x8           8  Interrupt Vector 15 
.vector_16              0x9d03f400            0x8           8  Interrupt Vector 16 
.vector_17              0x9d03f420            0x8           8  Interrupt Vector 17 
.vector_18              0x9d03f440            0x8           8  Interrupt Vector 18 
.vector_19              0x9d03f460            0x8           8  Interrupt Vector 19 
.vector_20              0x9d03f480            0x8           8  Interrupt Vector 20 
.vector_21              0x9d03f4a0            0x8           8  Interrupt Vector 21 
.vector_22              0x9d03f4c0            0x8           8  Interrupt Vector 22 
.vector_23              0x9d03f4e0            0x8           8  Interrupt Vector 23 
.vector_24              0x9d03f500            0x8           8  Interrupt Vector 24 
.vector_25              0x9d03f520            0x8           8  Interrupt Vector 25 
.vector_26              0x9d03f540            0x8           8  Interrupt Vector 26 
.vector_27              0x9d03f560            0x8           8  Interrupt Vector 27 
.vector_28              0x9d03f580            0x8           8  Interrupt Vector 28 
.vector_29              0x9d03f5a0            0x8           8  Interrupt Vector 29 
.vector_30              0x9d03f5c0            0x8           8  Interrupt Vector 30 
.vector_31              0x9d03f5e0            0x8           8  Interrupt Vector 31 
.vector_32              0x9d03f600            0x8           8  Interrupt Vector 32 
.vector_33              0x9d03f620            0x8           8  Interrupt Vector 33 
.vector_34              0x9d03f640            0x8           8  Interrupt Vector 34 
.vector_35              0x9d03f660            0x8           8  Interrupt Vector 35 
.vector_36              0x9d03f680            0x8           8  Interrupt Vector 36 
.vector_37              0x9d03f6a0            0x8           8  Interrupt Vector 37 
.vector_38              0x9d03f6c0            0x8           8  Interrupt Vector 38 
.vector_39              0x9d03f6e0            0x8           8  Interrupt Vector 39 
.vector_40              0x9d03f700            0x8           8  Interrupt Vector 40 
.vector_41              0x9d03f720            0x8           8  Interrupt Vector 41 
.vector_42              0x9d03f740            0x8           8  Interrupt Vector 42 
.vector_43              0x9d03f760            0x8           8  Interrupt Vector 43 
.vector_44              0x9d03f780            0x8           8  Interrupt Vector 44 
.vector_45              0x9d03f7a0            0x8           8  Interrupt Vector 45 
.vector_46              0x9d03f7c0            0x8           8  Interrupt Vector 46 
.vector_47              0x9d03f7e0            0x8           8  Interrupt Vector 47 
.vector_48              0x9d03f800            0x8           8  Interrupt Vector 48 
.vector_49              0x9d03f820            0x8           8  Interrupt Vector 49 
.vector_50              0x9d03f840            0x8           8  Interrupt Vector 50 
.vector_51              0x9d03f860            0x8           8  Interrupt Vector 51 
.vector_52              0x9d03f880            0x8           8  Interrupt Vector 52 
.vector_53              0x9d03f8a0            0x8           8  Interrupt Vector 53 
.vector_54              0x9d03f8c0            0x8           8  Interrupt Vector 54 
.vector_55              0x9d03f8e0            0x8           8  Interrupt Vector 55 
.vector_56              0x9d03f900            0x8           8  Interrupt Vector 56 
.vector_57              0x9d03f920            0x8           8  Interrupt Vector 57 
.vector_58              0x9d03f940            0x8           8  Interrupt Vector 58 
.vector_59              0x9d03f960            0x8           8  Interrupt Vector 59 
.vector_60              0x9d03f980            0x8           8  Interrupt Vector 60 
.vector_61              0x9d03f9a0            0x8           8  Interrupt Vector 61 
.vector_62              0x9d03f9c0            0x8           8  Interrupt Vector 62 
.vector_63              0x9d03f9e0            0x8           8  Interrupt Vector 63 
          Total exception_mem used  :       0x210         528  12.9% of 0x1000

kseg1 Boot-Memory Usage
section                    address  length [bytes]      (dec)  Description
-------                 ----------  -------------------------  -----------
.reset                  0xbfc00000          0x1c4         452  Reset handler 
.bev_excpt              0xbfc00380           0x10          16  BEV-Exception 
         Total kseg1_boot_mem used  :       0x1d4         468  40.1% of 0x490
        --------------------------------------------------------------------------
         Total Program Memory used  :      0xbf08       48904  18.6% of 0x40490
        --------------------------------------------------------------------------


kseg1 Data-Memory Usage
section                    address  length [bytes]      (dec)  Description
-------                 ----------  -------------------------  -----------
.eh_frame               0xa0000000           0x30          48   
.sdata                  0xa0000030           0x14          20  Small init data 
.sbss                   0xa0000044          0x16c         364  Small uninit data 
.bss                    0xa00001b0         0x73a0       29600  Uninitialized data 
.data                   0xa0007550           0xa0         160  Initialized data 
.bss                    0xa00075f0           0x7c         124  Uninitialized data 
         Total kseg1_data_mem used  :      0x766c       30316  46.3% of 0x10000
        --------------------------------------------------------------------------
            Total Data Memory used  :      0x766c       30316  46.3% of 0x10000
        --------------------------------------------------------------------------


Dynamic Data-Memory Reservation
section                    address  length [bytes]      (dec)  Description
-------                 ----------  -------------------------  -----------
heap                    0xa0007670           0x10          16  Reserved for heap 
stack                   0xa0007698         0x8958       35160  Reserved for stack 

        --------------------------------------------------------------------------

Discarded input sections

 .reginfo       0x00000000       0x18 /Applications/microchip/xc32/v1.32/bin/bin/../../lib/gcc/pic32mx/4.5.2/../../../../pic32mx/lib/debug-exception-return.o
 .reginfo       0x00000000       0x18 build/EXPLORER_16_PIC32MX270F256D/production/_ext/332309696/port.o
 .reginfo       0x00000000       0x18 build/EXPLORER_16_PIC32MX270F256D/production/_ext/332309696/port_asm.o
 .reginfo       0x00000000       0x18 build/EXPLORER_16_PIC32MX270F256D/production/_ext/449926602/queue.o
 .reginfo       0x00000000       0x18 build/EXPLORER_16_PIC32MX270F256D/production/_ext/449926602/tasks.o
 .reginfo       0x00000000       0x18 build/EXPLORER_16_PIC32MX270F256D/production/_ext/449926602/list.o
 .reginfo       0x00000000       0x18 build/EXPLORER_16_PIC32MX270F256D/production/_ext/449926602/timers.o
 .reginfo       0x00000000       0x18 build/EXPLORER_16_PIC32MX270F256D/production/_ext/1884096877/heap_4.o
 .reginfo       0x00000000       0x18 build/EXPLORER_16_PIC32MX270F256D/production/_ext/1163846883/blocktim.o
 .reginfo       0x00000000       0x18 build/EXPLORER_16_PIC32MX270F256D/production/_ext/1163846883/comtest.o
 .reginfo       0x00000000       0x18 build/EXPLORER_16_PIC32MX270F256D/production/_ext/1163846883/semtest.o
 .reginfo       0x00000000       0x18 build/EXPLORER_16_PIC32MX270F256D/production/_ext/1163846883/QPeek.o
 .reginfo       0x00000000       0x18 build/EXPLORER_16_PIC32MX270F256D/production/_ext/1163846883/IntQueue.o
 .reginfo       0x00000000       0x18 build/EXPLORER_16_PIC32MX270F256D/production/_ext/1163846883/GenQTest.o
 .reginfo       0x00000000       0x18 build/EXPLORER_16_PIC32MX270F256D/production/_ext/1163846883/flash_timer.o
 .reginfo       0x00000000       0x18 build/EXPLORER_16_PIC32MX270F256D/production/_ext/1472/main.o
 .reginfo       0x00000000       0x18 build/EXPLORER_16_PIC32MX270F256D/production/_ext/1472/RegisterTestTasks.o
 .reginfo       0x00000000       0x18 build/EXPLORER_16_PIC32MX270F256D/production/_ext/1472/lcd.o
 .reginfo       0x00000000       0x18 build/EXPLORER_16_PIC32MX270F256D/production/_ext/821501661/serial.o
 .reginfo       0x00000000       0x18 build/EXPLORER_16_PIC32MX270F256D/production/_ext/821501661/serial_isr.o
 .reginfo       0x00000000       0x18 build/EXPLORER_16_PIC32MX270F256D/production/_ext/1472/timertest.o
 .reginfo       0x00000000       0x18 build/EXPLORER_16_PIC32MX270F256D/production/_ext/1472/timertest_isr.o
 .reginfo       0x00000000       0x18 build/EXPLORER_16_PIC32MX270F256D/production/_ext/1472/IntQueueTimer.o
 .reginfo       0x00000000       0x18 build/EXPLORER_16_PIC32MX270F256D/production/_ext/1472/IntQueueTimer_isr.o
 .reginfo       0x00000000       0x18 build/EXPLORER_16_PIC32MX270F256D/production/_ext/1472/printf-stdarg.o
 .reginfo       0x00000000       0x18 build/EXPLORER_16_PIC32MX270F256D/production/_ext/1472/main_blinky.o
 .reginfo       0x00000000       0x18 build/EXPLORER_16_PIC32MX270F256D/production/_ext/1472/main_full.o
 .reginfo       0x00000000       0x18 build/EXPLORER_16_PIC32MX270F256D/production/_ext/1472/ConfigPerformance.o
 .reginfo       0x00000000       0x18 build/EXPLORER_16_PIC32MX270F256D/production/_ext/809743516/ParTest_Explorer16.o
 .reginfo       0x00000000       0x18 /Applications/microchip/xc32/v1.32/bin/bin/../../lib/gcc/pic32mx/4.5.2/../../../../pic32mx/lib/./proc/32MX270F256D/default_isr_vectors.o
 .discard       0x00000000      0x100 /Applications/microchip/xc32/v1.32/bin/bin/../../lib/gcc/pic32mx/4.5.2/../../../../pic32mx/lib/./proc/32MX270F256D/default_isr_vectors.o
 .reginfo       0x00000000       0x18 /Applications/microchip/xc32/v1.32/bin/bin/../../lib/gcc/pic32mx/4.5.2/../../../../pic32mx/lib/pic32_software_reset.o
 .reginfo       0x00000000       0x18 /Applications/microchip/xc32/v1.32/bin/bin/../../lib/gcc/pic32mx/4.5.2/../../../../pic32mx/lib/./proc/32MX270F256D/processor.o
 .reginfo       0x00000000       0x18 /Applications/microchip/xc32/v1.32/bin/bin/../../lib/gcc/pic32mx/4.5.2/../../../../pic32mx/lib/libmchp_peripheral_32MX270F256D.a(int_configure_system_lib.o)
 .reginfo       0x00000000       0x18 /Applications/microchip/xc32/v1.32/bin/bin/../../lib/gcc/pic32mx/4.5.2/../../../../pic32mx/lib/libmchp_peripheral_32MX270F256D.a(int_enable_interrupts_lib.o)
 .reginfo       0x00000000       0x18 /Applications/microchip/xc32/v1.32/bin/bin/../../lib/gcc/pic32mx/4.5.2/../../../../pic32mx/lib/libmchp_peripheral_32MX270F256D.a(int_disable_interrupts_lib.o)
 .reginfo       0x00000000       0x18 /Applications/microchip/xc32/v1.32/bin/bin/../../lib/gcc/pic32mx/4.5.2/../../../../pic32mx/lib/libmchp_peripheral_32MX270F256D.a(int_restore_interrupts_lib.o)
 .reginfo       0x00000000       0x18 /Applications/microchip/xc32/v1.32/bin/bin/../../lib/gcc/pic32mx/4.5.2/../../../../pic32mx/lib/libmchp_peripheral_32MX270F256D.a(int_tbl_lib.o)
 .reginfo       0x00000000       0x18 /Applications/microchip/xc32/v1.32/bin/bin/../../lib/gcc/pic32mx/4.5.2/../../../../pic32mx/lib/libmchp_peripheral_32MX270F256D.a(uart_lib.o)
 .reginfo       0x00000000       0x18 /Applications/microchip/xc32/v1.32/bin/bin/../../lib/gcc/pic32mx/4.5.2/../../../../pic32mx/lib/libpic32.a(memcmp.o)
 .reginfo       0x00000000       0x18 /Applications/microchip/xc32/v1.32/bin/bin/../../lib/gcc/pic32mx/4.5.2/../../../../pic32mx/lib/libpic32.a(memcpy.o)
 .reginfo       0x00000000       0x18 /Applications/microchip/xc32/v1.32/bin/bin/../../lib/gcc/pic32mx/4.5.2/../../../../pic32mx/lib/libpic32.a(memset.o)
 .reginfo       0x00000000       0x18 /Applications/microchip/xc32/v1.32/bin/bin/../../lib/gcc/pic32mx/4.5.2/../../../../pic32mx/lib/libpic32.a(default-bootstrap-exception-handler.o)
 .reginfo       0x00000000       0x18 /Applications/microchip/xc32/v1.32/bin/bin/../../lib/gcc/pic32mx/4.5.2/../../../../pic32mx/lib/libpic32.a(default-on-reset.o)
 .reginfo       0x00000000       0x18 /Applications/microchip/xc32/v1.32/bin/bin/../../lib/gcc/pic32mx/4.5.2/../../../../pic32mx/lib/libpic32.a(default-on-bootstrap.o)
 .reginfo       0x00000000       0x18 /Applications/microchip/xc32/v1.32/bin/bin/../../lib/gcc/pic32mx/4.5.2/../../../../pic32mx/lib/libpic32.a(default-nmi-handler.o)
 .reginfo       0x00000000       0x18 /Applications/microchip/xc32/v1.32/bin/bin/../../lib/gcc/pic32mx/4.5.2/../../../../pic32mx/lib/libpic32.a(general-exception.o)
 .reginfo       0x00000000       0x18 /Applications/microchip/xc32/v1.32/bin/bin/../../lib/gcc/pic32mx/4.5.2/../../../../pic32mx/lib/libpic32.a(vector0.o)
 .reginfo       0x00000000       0x18 /Applications/microchip/xc32/v1.32/bin/bin/../../lib/gcc/pic32mx/4.5.2/../../../../pic32mx/lib/libpic32.a(vector2.o)
 .reginfo       0x00000000       0x18 /Applications/microchip/xc32/v1.32/bin/bin/../../lib/gcc/pic32mx/4.5.2/../../../../pic32mx/lib/libpic32.a(vector3.o)
 .reginfo       0x00000000       0x18 /Applications/microchip/xc32/v1.32/bin/bin/../../lib/gcc/pic32mx/4.5.2/../../../../pic32mx/lib/libpic32.a(vector5.o)
 .reginfo       0x00000000       0x18 /Applications/microchip/xc32/v1.32/bin/bin/../../lib/gcc/pic32mx/4.5.2/../../../../pic32mx/lib/libpic32.a(vector6.o)
 .reginfo       0x00000000       0x18 /Applications/microchip/xc32/v1.32/bin/bin/../../lib/gcc/pic32mx/4.5.2/../../../../pic32mx/lib/libpic32.a(vector7.o)
 .reginfo       0x00000000       0x18 /Applications/microchip/xc32/v1.32/bin/bin/../../lib/gcc/pic32mx/4.5.2/../../../../pic32mx/lib/libpic32.a(vector9.o)
 .reginfo       0x00000000       0x18 /Applications/microchip/xc32/v1.32/bin/bin/../../lib/gcc/pic32mx/4.5.2/../../../../pic32mx/lib/libpic32.a(vector10.o)
 .reginfo       0x00000000       0x18 /Applications/microchip/xc32/v1.32/bin/bin/../../lib/gcc/pic32mx/4.5.2/../../../../pic32mx/lib/libpic32.a(vector11.o)
 .reginfo       0x00000000       0x18 /Applications/microchip/xc32/v1.32/bin/bin/../../lib/gcc/pic32mx/4.5.2/../../../../pic32mx/lib/libpic32.a(vector13.o)
 .reginfo       0x00000000       0x18 /Applications/microchip/xc32/v1.32/bin/bin/../../lib/gcc/pic32mx/4.5.2/../../../../pic32mx/lib/libpic32.a(vector14.o)
 .reginfo       0x00000000       0x18 /Applications/microchip/xc32/v1.32/bin/bin/../../lib/gcc/pic32mx/4.5.2/../../../../pic32mx/lib/libpic32.a(vector15.o)
 .reginfo       0x00000000       0x18 /Applications/microchip/xc32/v1.32/bin/bin/../../lib/gcc/pic32mx/4.5.2/../../../../pic32mx/lib/libpic32.a(vector17.o)
 .reginfo       0x00000000       0x18 /Applications/microchip/xc32/v1.32/bin/bin/../../lib/gcc/pic32mx/4.5.2/../../../../pic32mx/lib/libpic32.a(vector18.o)
 .reginfo       0x00000000       0x18 /Applications/microchip/xc32/v1.32/bin/bin/../../lib/gcc/pic32mx/4.5.2/../../../../pic32mx/lib/libpic32.a(vector19.o)
 .reginfo       0x00000000       0x18 /Applications/microchip/xc32/v1.32/bin/bin/../../lib/gcc/pic32mx/4.5.2/../../../../pic32mx/lib/libpic32.a(vector20.o)
 .reginfo       0x00000000       0x18 /Applications/microchip/xc32/v1.32/bin/bin/../../lib/gcc/pic32mx/4.5.2/../../../../pic32mx/lib/libpic32.a(vector21.o)
 .reginfo       0x00000000       0x18 /Applications/microchip/xc32/v1.32/bin/bin/../../lib/gcc/pic32mx/4.5.2/../../../../pic32mx/lib/libpic32.a(vector22.o)
 .reginfo       0x00000000       0x18 /Applications/microchip/xc32/v1.32/bin/bin/../../lib/gcc/pic32mx/4.5.2/../../../../pic32mx/lib/libpic32.a(vector23.o)
 .reginfo       0x00000000       0x18 /Applications/microchip/xc32/v1.32/bin/bin/../../lib/gcc/pic32mx/4.5.2/../../../../pic32mx/lib/libpic32.a(vector24.o)
 .reginfo       0x00000000       0x18 /Applications/microchip/xc32/v1.32/bin/bin/../../lib/gcc/pic32mx/4.5.2/../../../../pic32mx/lib/libpic32.a(vector25.o)
 .reginfo       0x00000000       0x18 /Applications/microchip/xc32/v1.32/bin/bin/../../lib/gcc/pic32mx/4.5.2/../../../../pic32mx/lib/libpic32.a(vector26.o)
 .reginfo       0x00000000       0x18 /Applications/microchip/xc32/v1.32/bin/bin/../../lib/gcc/pic32mx/4.5.2/../../../../pic32mx/lib/libpic32.a(vector27.o)
 .reginfo       0x00000000       0x18 /Applications/microchip/xc32/v1.32/bin/bin/../../lib/gcc/pic32mx/4.5.2/../../../../pic32mx/lib/libpic32.a(vector28.o)
 .reginfo       0x00000000       0x18 /Applications/microchip/xc32/v1.32/bin/bin/../../lib/gcc/pic32mx/4.5.2/../../../../pic32mx/lib/libpic32.a(vector29.o)
 .reginfo       0x00000000       0x18 /Applications/microchip/xc32/v1.32/bin/bin/../../lib/gcc/pic32mx/4.5.2/../../../../pic32mx/lib/libpic32.a(vector30.o)
 .reginfo       0x00000000       0x18 /Applications/microchip/xc32/v1.32/bin/bin/../../lib/gcc/pic32mx/4.5.2/../../../../pic32mx/lib/libpic32.a(vector31.o)
 .reginfo       0x00000000       0x18 /Applications/microchip/xc32/v1.32/bin/bin/../../lib/gcc/pic32mx/4.5.2/../../../../pic32mx/lib/libpic32.a(vector33.o)
 .reginfo       0x00000000       0x18 /Applications/microchip/xc32/v1.32/bin/bin/../../lib/gcc/pic32mx/4.5.2/../../../../pic32mx/lib/libpic32.a(vector34.o)
 .reginfo       0x00000000       0x18 /Applications/microchip/xc32/v1.32/bin/bin/../../lib/gcc/pic32mx/4.5.2/../../../../pic32mx/lib/libpic32.a(vector35.o)
 .reginfo       0x00000000       0x18 /Applications/microchip/xc32/v1.32/bin/bin/../../lib/gcc/pic32mx/4.5.2/../../../../pic32mx/lib/libpic32.a(vector36.o)
 .reginfo       0x00000000       0x18 /Applications/microchip/xc32/v1.32/bin/bin/../../lib/gcc/pic32mx/4.5.2/../../../../pic32mx/lib/libpic32.a(vector37.o)
 .reginfo       0x00000000       0x18 /Applications/microchip/xc32/v1.32/bin/bin/../../lib/gcc/pic32mx/4.5.2/../../../../pic32mx/lib/libpic32.a(vector38.o)
 .reginfo       0x00000000       0x18 /Applications/microchip/xc32/v1.32/bin/bin/../../lib/gcc/pic32mx/4.5.2/../../../../pic32mx/lib/libpic32.a(vector39.o)
 .reginfo       0x00000000       0x18 /Applications/microchip/xc32/v1.32/bin/bin/../../lib/gcc/pic32mx/4.5.2/../../../../pic32mx/lib/libpic32.a(vector40.o)
 .reginfo       0x00000000       0x18 /Applications/microchip/xc32/v1.32/bin/bin/../../lib/gcc/pic32mx/4.5.2/../../../../pic32mx/lib/libpic32.a(vector41.o)
 .reginfo       0x00000000       0x18 /Applications/microchip/xc32/v1.32/bin/bin/../../lib/gcc/pic32mx/4.5.2/../../../../pic32mx/lib/libpic32.a(vector42.o)
 .reginfo       0x00000000       0x18 /Applications/microchip/xc32/v1.32/bin/bin/../../lib/gcc/pic32mx/4.5.2/../../../../pic32mx/lib/libpic32.a(vector43.o)
 .reginfo       0x00000000       0x18 /Applications/microchip/xc32/v1.32/bin/bin/../../lib/gcc/pic32mx/4.5.2/../../../../pic32mx/lib/libpic32.a(vector44.o)
 .reginfo       0x00000000       0x18 /Applications/microchip/xc32/v1.32/bin/bin/../../lib/gcc/pic32mx/4.5.2/../../../../pic32mx/lib/libpic32.a(vector45.o)
 .reginfo       0x00000000       0x18 /Applications/microchip/xc32/v1.32/bin/bin/../../lib/gcc/pic32mx/4.5.2/../../../../pic32mx/lib/libpic32.a(vector46.o)
 .reginfo       0x00000000       0x18 /Applications/microchip/xc32/v1.32/bin/bin/../../lib/gcc/pic32mx/4.5.2/../../../../pic32mx/lib/libpic32.a(vector47.o)
 .reginfo       0x00000000       0x18 /Applications/microchip/xc32/v1.32/bin/bin/../../lib/gcc/pic32mx/4.5.2/../../../../pic32mx/lib/libpic32.a(vector48.o)
 .reginfo       0x00000000       0x18 /Applications/microchip/xc32/v1.32/bin/bin/../../lib/gcc/pic32mx/4.5.2/../../../../pic32mx/lib/libpic32.a(vector49.o)
 .reginfo       0x00000000       0x18 /Applications/microchip/xc32/v1.32/bin/bin/../../lib/gcc/pic32mx/4.5.2/../../../../pic32mx/lib/libpic32.a(vector50.o)
 .reginfo       0x00000000       0x18 /Applications/microchip/xc32/v1.32/bin/bin/../../lib/gcc/pic32mx/4.5.2/../../../../pic32mx/lib/libpic32.a(vector51.o)
 .reginfo       0x00000000       0x18 /Applications/microchip/xc32/v1.32/bin/bin/../../lib/gcc/pic32mx/4.5.2/../../../../pic32mx/lib/libpic32.a(vector52.o)
 .reginfo       0x00000000       0x18 /Applications/microchip/xc32/v1.32/bin/bin/../../lib/gcc/pic32mx/4.5.2/../../../../pic32mx/lib/libpic32.a(vector53.o)
 .reginfo       0x00000000       0x18 /Applications/microchip/xc32/v1.32/bin/bin/../../lib/gcc/pic32mx/4.5.2/../../../../pic32mx/lib/libpic32.a(vector54.o)
 .reginfo       0x00000000       0x18 /Applications/microchip/xc32/v1.32/bin/bin/../../lib/gcc/pic32mx/4.5.2/../../../../pic32mx/lib/libpic32.a(vector55.o)
 .reginfo       0x00000000       0x18 /Applications/microchip/xc32/v1.32/bin/bin/../../lib/gcc/pic32mx/4.5.2/../../../../pic32mx/lib/libpic32.a(vector56.o)
 .reginfo       0x00000000       0x18 /Applications/microchip/xc32/v1.32/bin/bin/../../lib/gcc/pic32mx/4.5.2/../../../../pic32mx/lib/libpic32.a(vector57.o)
 .reginfo       0x00000000       0x18 /Applications/microchip/xc32/v1.32/bin/bin/../../lib/gcc/pic32mx/4.5.2/../../../../pic32mx/lib/libpic32.a(vector58.o)
 .reginfo       0x00000000       0x18 /Applications/microchip/xc32/v1.32/bin/bin/../../lib/gcc/pic32mx/4.5.2/../../../../pic32mx/lib/libpic32.a(vector59.o)
 .reginfo       0x00000000       0x18 /Applications/microchip/xc32/v1.32/bin/bin/../../lib/gcc/pic32mx/4.5.2/../../../../pic32mx/lib/libpic32.a(vector60.o)
 .reginfo       0x00000000       0x18 /Applications/microchip/xc32/v1.32/bin/bin/../../lib/gcc/pic32mx/4.5.2/../../../../pic32mx/lib/libpic32.a(vector61.o)
 .reginfo       0x00000000       0x18 /Applications/microchip/xc32/v1.32/bin/bin/../../lib/gcc/pic32mx/4.5.2/../../../../pic32mx/lib/libpic32.a(vector62.o)
 .reginfo       0x00000000       0x18 /Applications/microchip/xc32/v1.32/bin/bin/../../lib/gcc/pic32mx/4.5.2/../../../../pic32mx/lib/libpic32.a(vector63.o)
 .reginfo       0x00000000       0x18 /Applications/microchip/xc32/v1.32/bin/bin/../../lib/gcc/pic32mx/4.5.2/../../../../pic32mx/lib/libpic32.a(defaultinterrupt.o)
 .reginfo       0x00000000       0x18 /Applications/microchip/xc32/v1.32/bin/bin/../../lib/gcc/pic32mx/4.5.2/../../../../pic32mx/lib/libc.a(putchar.o)
 .reginfo       0x00000000       0x18 /Applications/microchip/xc32/v1.32/bin/bin/../../lib/gcc/pic32mx/4.5.2/../../../../pic32mx/lib/libc.a(sprintf_cdnopuxX.eo)
 .reginfo       0x00000000       0x18 /Applications/microchip/xc32/v1.32/bin/bin/../../lib/gcc/pic32mx/4.5.2/../../../../pic32mx/lib/libc.a(_iob.o)
 .reginfo       0x00000000       0x18 /Applications/microchip/xc32/v1.32/bin/bin/../../lib/gcc/pic32mx/4.5.2/../../../../pic32mx/lib/libc.a(_fputc_simple.o)
 .reginfo       0x00000000       0x18 /Applications/microchip/xc32/v1.32/bin/bin/../../lib/gcc/pic32mx/4.5.2/../../../../pic32mx/lib/libc.a(doprnt_cdnopuxX.eo)
 .reginfo       0x00000000       0x18 /Applications/microchip/xc32/v1.32/bin/bin/../../lib/gcc/pic32mx/4.5.2/../../../../pic32mx/lib/libc.a(_flsbuf_simple.o)
 .reginfo       0x00000000       0x18 /Applications/microchip/xc32/v1.32/bin/bin/../../lib/gcc/pic32mx/4.5.2/../../../../pic32mx/lib/libc.a(ctype.o)
 .reginfo       0x00000000       0x18 /Applications/microchip/xc32/v1.32/bin/bin/../../lib/gcc/pic32mx/4.5.2/libgcc.a(_udivdi3.o)
 .reginfo       0x00000000       0x18 /Applications/microchip/xc32/v1.32/bin/bin/../../lib/gcc/pic32mx/4.5.2/libgcc.a(_umoddi3.o)

Memory Configuration

Name             Origin             Length             Attributes
kseg0_program_mem 0x9d000000         0x0003f000         xr
exception_mem    0x9d03f000         0x00001000
debug_exec_mem   0x9fc00490         0x00000760
kseg0_boot_mem   0x9fc00490         0x00000000
kseg1_boot_mem   0xbfc00000         0x00000490
config3          0xbfc00bf0         0x00000004
config2          0xbfc00bf4         0x00000004
config1          0xbfc00bf8         0x00000004
config0          0xbfc00bfc         0x00000004
kseg1_data_mem   0xa0000000         0x00010000         w !x
sfrs             0xbf800000         0x00100000
configsfrs       0xbfc00bf0         0x00000010
*default*        0x00000000         0xffffffff

Linker script and memory map

LOAD /Applications/microchip/xc32/v1.32/bin/bin/../../lib/gcc/pic32mx/4.5.2/../../../../pic32mx/lib/./proc/32MX270F256D/crt0_mips32r2.o
LOAD /Applications/microchip/xc32/v1.32/bin/bin/../../lib/gcc/pic32mx/4.5.2/../../../../pic32mx/lib/debug-exception-return.o
LOAD build/EXPLORER_16_PIC32MX270F256D/production/_ext/332309696/port.o
LOAD build/EXPLORER_16_PIC32MX270F256D/production/_ext/332309696/port_asm.o
LOAD build/EXPLORER_16_PIC32MX270F256D/production/_ext/449926602/queue.o
LOAD build/EXPLORER_16_PIC32MX270F256D/production/_ext/449926602/tasks.o
LOAD build/EXPLORER_16_PIC32MX270F256D/production/_ext/449926602/list.o
LOAD build/EXPLORER_16_PIC32MX270F256D/production/_ext/449926602/timers.o
LOAD build/EXPLORER_16_PIC32MX270F256D/production/_ext/1884096877/heap_4.o
LOAD build/EXPLORER_16_PIC32MX270F256D/production/_ext/1163846883/blocktim.o
LOAD build/EXPLORER_16_PIC32MX270F256D/production/_ext/1163846883/comtest.o
LOAD build/EXPLORER_16_PIC32MX270F256D/production/_ext/1163846883/semtest.o
LOAD build/EXPLORER_16_PIC32MX270F256D/production/_ext/1163846883/QPeek.o
LOAD build/EXPLORER_16_PIC32MX270F256D/production/_ext/1163846883/IntQueue.o
LOAD build/EXPLORER_16_PIC32MX270F256D/production/_ext/1163846883/GenQTest.o
LOAD build/EXPLORER_16_PIC32MX270F256D/production/_ext/1163846883/flash_timer.o
LOAD build/EXPLORER_16_PIC32MX270F256D/production/_ext/1472/main.o
LOAD build/EXPLORER_16_PIC32MX270F256D/production/_ext/1472/RegisterTestTasks.o
LOAD build/EXPLORER_16_PIC32MX270F256D/production/_ext/1472/lcd.o
LOAD build/EXPLORER_16_PIC32MX270F256D/production/_ext/821501661/serial.o
LOAD build/EXPLORER_16_PIC32MX270F256D/production/_ext/821501661/serial_isr.o
LOAD build/EXPLORER_16_PIC32MX270F256D/production/_ext/1472/timertest.o
LOAD build/EXPLORER_16_PIC32MX270F256D/production/_ext/1472/timertest_isr.o
LOAD build/EXPLORER_16_PIC32MX270F256D/production/_ext/1472/IntQueueTimer.o
LOAD build/EXPLORER_16_PIC32MX270F256D/production/_ext/1472/IntQueueTimer_isr.o
LOAD build/EXPLORER_16_PIC32MX270F256D/production/_ext/1472/printf-stdarg.o
LOAD build/EXPLORER_16_PIC32MX270F256D/production/_ext/1472/main_blinky.o
LOAD build/EXPLORER_16_PIC32MX270F256D/production/_ext/1472/main_full.o
LOAD build/EXPLORER_16_PIC32MX270F256D/production/_ext/1472/ConfigPerformance.o
LOAD build/EXPLORER_16_PIC32MX270F256D/production/_ext/809743516/ParTest_Explorer16.o
                0x00000001                __MPLAB_BUILD = 0x1
LOAD /Applications/microchip/xc32/v1.32/bin/bin/../../lib/gcc/pic32mx/4.5.2/../../../../pic32mx/lib/./proc/32MX270F256D/default_isr_vectors.o
LOAD /Applications/microchip/xc32/v1.32/bin/bin/../../lib/gcc/pic32mx/4.5.2/../../../../pic32mx/lib/pic32_software_reset.o
                0x00000400                PROVIDE (_min_stack_size, 0x400)
LOAD /Applications/microchip/xc32/v1.32/bin/bin/../../lib/gcc/pic32mx/4.5.2/../../../../pic32mx/lib/./proc/32MX270F256D/processor.o
START GROUP
LOAD /Applications/microchip/xc32/v1.32/bin/bin/../../lib/gcc/pic32mx/4.5.2/../../../../pic32mx/lib/libmchp_peripheral.a
END GROUP
START GROUP
LOAD /Applications/microchip/xc32/v1.32/bin/bin/../../lib/gcc/pic32mx/4.5.2/../../../../pic32mx/lib/libmchp_peripheral_32MX270F256D.a
END GROUP
                0x00000001                PROVIDE (_vector_spacing, 0x1)
                0x9d03f000                _ebase_address = 0x9d03f000
                0xbfc00000                _RESET_ADDR = 0xbfc00000
                0xbfc00380                _BEV_EXCPT_ADDR = 0xbfc00380
                0xbfc00480                _DBG_EXCPT_ADDR = 0xbfc00480
                0x9fc00490                _DBG_CODE_ADDR = 0x9fc00490
                0x00000760                _DBG_CODE_SIZE = 0x760
                0x9d03f180                _GEN_EXCPT_ADDR = (_ebase_address + 0x180)

.config_BFC00BF0
                0xbfc00bf0        0x4
 *(.config_BFC00BF0)
 .config_BFC00BF0
                0xbfc00bf0        0x4 build/EXPLORER_16_PIC32MX270F256D/production/_ext/1472/main.o

.config_BFC00BF4
                0xbfc00bf4        0x4
 *(.config_BFC00BF4)
 .config_BFC00BF4
                0xbfc00bf4        0x4 build/EXPLORER_16_PIC32MX270F256D/production/_ext/1472/main.o

.config_BFC00BF8
                0xbfc00bf8        0x4
 *(.config_BFC00BF8)
 .config_BFC00BF8
                0xbfc00bf8        0x4 build/EXPLORER_16_PIC32MX270F256D/production/_ext/1472/main.o

.config_BFC00BFC
                0xbfc00bfc        0x4
 *(.config_BFC00BFC)
 .config_BFC00BFC
                0xbfc00bfc        0x4 build/EXPLORER_16_PIC32MX270F256D/production/_ext/1472/main.o
                0xbfc02000                PROVIDE (_DBG_CODE_ADDR, 0xbfc02000)
                0x00000ff0                PROVIDE (_DBG_CODE_SIZE, 0xff0)

.reset          0xbfc00000      0x1c4
 *(.reset)
 .reset         0xbfc00000      0x1c4 /Applications/microchip/xc32/v1.32/bin/bin/../../lib/gcc/pic32mx/4.5.2/../../../../pic32mx/lib/./proc/32MX270F256D/crt0_mips32r2.o
                0xbfc00000                _reset
 *(.reset.startup)

.bev_excpt      0xbfc00380       0x10
 *(.bev_handler)
 .bev_handler   0xbfc00380       0x10 /Applications/microchip/xc32/v1.32/bin/bin/../../lib/gcc/pic32mx/4.5.2/../../../../pic32mx/lib/./proc/32MX270F256D/crt0_mips32r2.o

.dbg_excpt      0xbfc00480        0x0
                0xbfc00480                . = (. + DEFINED (_DEBUGGER)?0x8:0x0)

.dbg_code       0x9fc00490        0x0
                0x9fc00490                . = (. + DEFINED (_DEBUGGER)?_DBG_CODE_SIZE:0x0)

.app_excpt      0x9d03f180       0x10
 *(.gen_handler)
 .gen_handler   0x9d03f180       0x10 /Applications/microchip/xc32/v1.32/bin/bin/../../lib/gcc/pic32mx/4.5.2/../../../../pic32mx/lib/./proc/32MX270F256D/crt0_mips32r2.o

.vector_0       0x9d03f200        0x8
 *(.vector_0)
 .vector_0      0x9d03f200        0x8 /Applications/microchip/xc32/v1.32/bin/bin/../../lib/gcc/pic32mx/4.5.2/../../../../pic32mx/lib/libpic32.a(vector0.o)
                0x9d03f200                __vector_dispatch_0
                0x00000001                ASSERT (((_vector_spacing == 0x0) || (SIZEOF (.vector_0) <= (_vector_spacing << 0x5))), function at exception vector 0 too large)

.vector_1       0x9d03f220        0x8
 *(.vector_1)
 .vector_1      0x9d03f220        0x8 build/EXPLORER_16_PIC32MX270F256D/production/_ext/332309696/port.o
                0x9d03f220                __vector_dispatch_1
                0x00000001                ASSERT (((_vector_spacing == 0x0) || (SIZEOF (.vector_1) <= (_vector_spacing << 0x5))), function at exception vector 1 too large)

.vector_2       0x9d03f240        0x8
 *(.vector_2)
 .vector_2      0x9d03f240        0x8 /Applications/microchip/xc32/v1.32/bin/bin/../../lib/gcc/pic32mx/4.5.2/../../../../pic32mx/lib/libpic32.a(vector2.o)
                0x9d03f240                __vector_dispatch_2
                0x00000001                ASSERT (((_vector_spacing == 0x0) || (SIZEOF (.vector_2) <= (_vector_spacing << 0x5))), function at exception vector 2 too large)

.vector_3       0x9d03f260        0x8
 *(.vector_3)
 .vector_3      0x9d03f260        0x8 /Applications/microchip/xc32/v1.32/bin/bin/../../lib/gcc/pic32mx/4.5.2/../../../../pic32mx/lib/libpic32.a(vector3.o)
                0x9d03f260                __vector_dispatch_3
                0x00000001                ASSERT (((_vector_spacing == 0x0) || (SIZEOF (.vector_3) <= (_vector_spacing << 0x5))), function at exception vector 3 too large)

.vector_4       0x9d03f280        0x8
 *(.vector_4)
 .vector_4      0x9d03f280        0x8 build/EXPLORER_16_PIC32MX270F256D/production/_ext/332309696/port.o
                0x9d03f280                __vector_dispatch_4
                0x00000001                ASSERT (((_vector_spacing == 0x0) || (SIZEOF (.vector_4) <= (_vector_spacing << 0x5))), function at exception vector 4 too large)

.vector_5       0x9d03f2a0        0x8
 *(.vector_5)
 .vector_5      0x9d03f2a0        0x8 /Applications/microchip/xc32/v1.32/bin/bin/../../lib/gcc/pic32mx/4.5.2/../../../../pic32mx/lib/libpic32.a(vector5.o)
                0x9d03f2a0                __vector_dispatch_5
                0x00000001                ASSERT (((_vector_spacing == 0x0) || (SIZEOF (.vector_5) <= (_vector_spacing << 0x5))), function at exception vector 5 too large)

.vector_6       0x9d03f2c0        0x8
 *(.vector_6)
 .vector_6      0x9d03f2c0        0x8 /Applications/microchip/xc32/v1.32/bin/bin/../../lib/gcc/pic32mx/4.5.2/../../../../pic32mx/lib/libpic32.a(vector6.o)
                0x9d03f2c0                __vector_dispatch_6
                0x00000001                ASSERT (((_vector_spacing == 0x0) || (SIZEOF (.vector_6) <= (_vector_spacing << 0x5))), function at exception vector 6 too large)

.vector_7       0x9d03f2e0        0x8
 *(.vector_7)
 .vector_7      0x9d03f2e0        0x8 /Applications/microchip/xc32/v1.32/bin/bin/../../lib/gcc/pic32mx/4.5.2/../../../../pic32mx/lib/libpic32.a(vector7.o)
                0x9d03f2e0                __vector_dispatch_7
                0x00000001                ASSERT (((_vector_spacing == 0x0) || (SIZEOF (.vector_7) <= (_vector_spacing << 0x5))), function at exception vector 7 too large)

.vector_8       0x9d03f300        0x8
 *(.vector_8)
 .vector_8      0x9d03f300        0x8 build/EXPLORER_16_PIC32MX270F256D/production/_ext/1472/timertest.o
                0x9d03f300                __vector_dispatch_8
                0x00000001                ASSERT (((_vector_spacing == 0x0) || (SIZEOF (.vector_8) <= (_vector_spacing << 0x5))), function at exception vector 8 too large)

.vector_9       0x9d03f320        0x8
 *(.vector_9)
 .vector_9      0x9d03f320        0x8 /Applications/microchip/xc32/v1.32/bin/bin/../../lib/gcc/pic32mx/4.5.2/../../../../pic32mx/lib/libpic32.a(vector9.o)
                0x9d03f320                __vector_dispatch_9
                0x00000001                ASSERT (((_vector_spacing == 0x0) || (SIZEOF (.vector_9) <= (_vector_spacing << 0x5))), function at exception vector 9 too large)

.vector_10      0x9d03f340        0x8
 *(.vector_10)
 .vector_10     0x9d03f340        0x8 /Applications/microchip/xc32/v1.32/bin/bin/../../lib/gcc/pic32mx/4.5.2/../../../../pic32mx/lib/libpic32.a(vector10.o)
                0x9d03f340                __vector_dispatch_10
                0x00000001                ASSERT (((_vector_spacing == 0x0) || (SIZEOF (.vector_10) <= (_vector_spacing << 0x5))), function at exception vector 10 too large)

.vector_11      0x9d03f360        0x8
 *(.vector_11)
 .vector_11     0x9d03f360        0x8 /Applications/microchip/xc32/v1.32/bin/bin/../../lib/gcc/pic32mx/4.5.2/../../../../pic32mx/lib/libpic32.a(vector11.o)
                0x9d03f360                __vector_dispatch_11
                0x00000001                ASSERT (((_vector_spacing == 0x0) || (SIZEOF (.vector_11) <= (_vector_spacing << 0x5))), function at exception vector 11 too large)

.vector_12      0x9d03f380        0x8
 *(.vector_12)
 .vector_12     0x9d03f380        0x8 build/EXPLORER_16_PIC32MX270F256D/production/_ext/1472/IntQueueTimer.o
                0x9d03f380                __vector_dispatch_12
                0x00000001                ASSERT (((_vector_spacing == 0x0) || (SIZEOF (.vector_12) <= (_vector_spacing << 0x5))), function at exception vector 12 too large)

.vector_13      0x9d03f3a0        0x8
 *(.vector_13)
 .vector_13     0x9d03f3a0        0x8 /Applications/microchip/xc32/v1.32/bin/bin/../../lib/gcc/pic32mx/4.5.2/../../../../pic32mx/lib/libpic32.a(vector13.o)
                0x9d03f3a0                __vector_dispatch_13
                0x00000001                ASSERT (((_vector_spacing == 0x0) || (SIZEOF (.vector_13) <= (_vector_spacing << 0x5))), function at exception vector 13 too large)

.vector_14      0x9d03f3c0        0x8
 *(.vector_14)
 .vector_14     0x9d03f3c0        0x8 /Applications/microchip/xc32/v1.32/bin/bin/../../lib/gcc/pic32mx/4.5.2/../../../../pic32mx/lib/libpic32.a(vector14.o)
                0x9d03f3c0                __vector_dispatch_14
                0x00000001                ASSERT (((_vector_spacing == 0x0) || (SIZEOF (.vector_14) <= (_vector_spacing << 0x5))), function at exception vector 14 too large)

.vector_15      0x9d03f3e0        0x8
 *(.vector_15)
 .vector_15     0x9d03f3e0        0x8 /Applications/microchip/xc32/v1.32/bin/bin/../../lib/gcc/pic32mx/4.5.2/../../../../pic32mx/lib/libpic32.a(vector15.o)
                0x9d03f3e0                __vector_dispatch_15
                0x00000001                ASSERT (((_vector_spacing == 0x0) || (SIZEOF (.vector_15) <= (_vector_spacing << 0x5))), function at exception vector 15 too large)

.vector_16      0x9d03f400        0x8
 *(.vector_16)
 .vector_16     0x9d03f400        0x8 build/EXPLORER_16_PIC32MX270F256D/production/_ext/1472/IntQueueTimer.o
                0x9d03f400                __vector_dispatch_16
                0x00000001                ASSERT (((_vector_spacing == 0x0) || (SIZEOF (.vector_16) <= (_vector_spacing << 0x5))), function at exception vector 16 too large)

.vector_17      0x9d03f420        0x8
 *(.vector_17)
 .vector_17     0x9d03f420        0x8 /Applications/microchip/xc32/v1.32/bin/bin/../../lib/gcc/pic32mx/4.5.2/../../../../pic32mx/lib/libpic32.a(vector17.o)
                0x9d03f420                __vector_dispatch_17
                0x00000001                ASSERT (((_vector_spacing == 0x0) || (SIZEOF (.vector_17) <= (_vector_spacing << 0x5))), function at exception vector 17 too large)

.vector_18      0x9d03f440        0x8
 *(.vector_18)
 .vector_18     0x9d03f440        0x8 /Applications/microchip/xc32/v1.32/bin/bin/../../lib/gcc/pic32mx/4.5.2/../../../../pic32mx/lib/libpic32.a(vector18.o)
                0x9d03f440                __vector_dispatch_18
                0x00000001                ASSERT (((_vector_spacing == 0x0) || (SIZEOF (.vector_18) <= (_vector_spacing << 0x5))), function at exception vector 18 too large)

.vector_19      0x9d03f460        0x8
 *(.vector_19)
 .vector_19     0x9d03f460        0x8 /Applications/microchip/xc32/v1.32/bin/bin/../../lib/gcc/pic32mx/4.5.2/../../../../pic32mx/lib/libpic32.a(vector19.o)
                0x9d03f460                __vector_dispatch_19
                0x00000001                ASSERT (((_vector_spacing == 0x0) || (SIZEOF (.vector_19) <= (_vector_spacing << 0x5))), function at exception vector 19 too large)

.vector_20      0x9d03f480        0x8
 *(.vector_20)
 .vector_20     0x9d03f480        0x8 /Applications/microchip/xc32/v1.32/bin/bin/../../lib/gcc/pic32mx/4.5.2/../../../../pic32mx/lib/libpic32.a(vector20.o)
                0x9d03f480                __vector_dispatch_20
                0x00000001                ASSERT (((_vector_spacing == 0x0) || (SIZEOF (.vector_20) <= (_vector_spacing << 0x5))), function at exception vector 20 too large)

.vector_21      0x9d03f4a0        0x8
 *(.vector_21)
 .vector_21     0x9d03f4a0        0x8 /Applications/microchip/xc32/v1.32/bin/bin/../../lib/gcc/pic32mx/4.5.2/../../../../pic32mx/lib/libpic32.a(vector21.o)
                0x9d03f4a0                __vector_dispatch_21
                0x00000001                ASSERT (((_vector_spacing == 0x0) || (SIZEOF (.vector_21) <= (_vector_spacing << 0x5))), function at exception vector 21 too large)

.vector_22      0x9d03f4c0        0x8
 *(.vector_22)
 .vector_22     0x9d03f4c0        0x8 /Applications/microchip/xc32/v1.32/bin/bin/../../lib/gcc/pic32mx/4.5.2/../../../../pic32mx/lib/libpic32.a(vector22.o)
                0x9d03f4c0                __vector_dispatch_22
                0x00000001                ASSERT (((_vector_spacing == 0x0) || (SIZEOF (.vector_22) <= (_vector_spacing << 0x5))), function at exception vector 22 too large)

.vector_23      0x9d03f4e0        0x8
 *(.vector_23)
 .vector_23     0x9d03f4e0        0x8 /Applications/microchip/xc32/v1.32/bin/bin/../../lib/gcc/pic32mx/4.5.2/../../../../pic32mx/lib/libpic32.a(vector23.o)
                0x9d03f4e0                __vector_dispatch_23
                0x00000001                ASSERT (((_vector_spacing == 0x0) || (SIZEOF (.vector_23) <= (_vector_spacing << 0x5))), function at exception vector 23 too large)

.vector_24      0x9d03f500        0x8
 *(.vector_24)
 .vector_24     0x9d03f500        0x8 /Applications/microchip/xc32/v1.32/bin/bin/../../lib/gcc/pic32mx/4.5.2/../../../../pic32mx/lib/libpic32.a(vector24.o)
                0x9d03f500                __vector_dispatch_24
                0x00000001                ASSERT (((_vector_spacing == 0x0) || (SIZEOF (.vector_24) <= (_vector_spacing << 0x5))), function at exception vector 24 too large)

.vector_25      0x9d03f520        0x8
 *(.vector_25)
 .vector_25     0x9d03f520        0x8 /Applications/microchip/xc32/v1.32/bin/bin/../../lib/gcc/pic32mx/4.5.2/../../../../pic32mx/lib/libpic32.a(vector25.o)
                0x9d03f520                __vector_dispatch_25
                0x00000001                ASSERT (((_vector_spacing == 0x0) || (SIZEOF (.vector_25) <= (_vector_spacing << 0x5))), function at exception vector 25 too large)

.vector_26      0x9d03f540        0x8
 *(.vector_26)
 .vector_26     0x9d03f540        0x8 /Applications/microchip/xc32/v1.32/bin/bin/../../lib/gcc/pic32mx/4.5.2/../../../../pic32mx/lib/libpic32.a(vector26.o)
                0x9d03f540                __vector_dispatch_26
                0x00000001                ASSERT (((_vector_spacing == 0x0) || (SIZEOF (.vector_26) <= (_vector_spacing << 0x5))), function at exception vector 26 too large)

.vector_27      0x9d03f560        0x8
 *(.vector_27)
 .vector_27     0x9d03f560        0x8 /Applications/microchip/xc32/v1.32/bin/bin/../../lib/gcc/pic32mx/4.5.2/../../../../pic32mx/lib/libpic32.a(vector27.o)
                0x9d03f560                __vector_dispatch_27
                0x00000001                ASSERT (((_vector_spacing == 0x0) || (SIZEOF (.vector_27) <= (_vector_spacing << 0x5))), function at exception vector 27 too large)

.vector_28      0x9d03f580        0x8
 *(.vector_28)
 .vector_28     0x9d03f580        0x8 /Applications/microchip/xc32/v1.32/bin/bin/../../lib/gcc/pic32mx/4.5.2/../../../../pic32mx/lib/libpic32.a(vector28.o)
                0x9d03f580                __vector_dispatch_28
                0x00000001                ASSERT (((_vector_spacing == 0x0) || (SIZEOF (.vector_28) <= (_vector_spacing << 0x5))), function at exception vector 28 too large)

.vector_29      0x9d03f5a0        0x8
 *(.vector_29)
 .vector_29     0x9d03f5a0        0x8 /Applications/microchip/xc32/v1.32/bin/bin/../../lib/gcc/pic32mx/4.5.2/../../../../pic32mx/lib/libpic32.a(vector29.o)
                0x9d03f5a0                __vector_dispatch_29
                0x00000001                ASSERT (((_vector_spacing == 0x0) || (SIZEOF (.vector_29) <= (_vector_spacing << 0x5))), function at exception vector 29 too large)

.vector_30      0x9d03f5c0        0x8
 *(.vector_30)
 .vector_30     0x9d03f5c0        0x8 /Applications/microchip/xc32/v1.32/bin/bin/../../lib/gcc/pic32mx/4.5.2/../../../../pic32mx/lib/libpic32.a(vector30.o)
                0x9d03f5c0                __vector_dispatch_30
                0x00000001                ASSERT (((_vector_spacing == 0x0) || (SIZEOF (.vector_30) <= (_vector_spacing << 0x5))), function at exception vector 30 too large)

.vector_31      0x9d03f5e0        0x8
 *(.vector_31)
 .vector_31     0x9d03f5e0        0x8 /Applications/microchip/xc32/v1.32/bin/bin/../../lib/gcc/pic32mx/4.5.2/../../../../pic32mx/lib/libpic32.a(vector31.o)
                0x9d03f5e0                __vector_dispatch_31
                0x00000001                ASSERT (((_vector_spacing == 0x0) || (SIZEOF (.vector_31) <= (_vector_spacing << 0x5))), function at exception vector 31 too large)

.vector_32      0x9d03f600        0x8
 *(.vector_32)
 .vector_32     0x9d03f600        0x8 build/EXPLORER_16_PIC32MX270F256D/production/_ext/821501661/serial.o
                0x9d03f600                __vector_dispatch_32
                0x00000001                ASSERT (((_vector_spacing == 0x0) || (SIZEOF (.vector_32) <= (_vector_spacing << 0x5))), function at exception vector 32 too large)

.vector_33      0x9d03f620        0x8
 *(.vector_33)
 .vector_33     0x9d03f620        0x8 /Applications/microchip/xc32/v1.32/bin/bin/../../lib/gcc/pic32mx/4.5.2/../../../../pic32mx/lib/libpic32.a(vector33.o)
                0x9d03f620                __vector_dispatch_33
                0x00000001                ASSERT (((_vector_spacing == 0x0) || (SIZEOF (.vector_33) <= (_vector_spacing << 0x5))), function at exception vector 33 too large)

.vector_34      0x9d03f640        0x8
 *(.vector_34)
 .vector_34     0x9d03f640        0x8 /Applications/microchip/xc32/v1.32/bin/bin/../../lib/gcc/pic32mx/4.5.2/../../../../pic32mx/lib/libpic32.a(vector34.o)
                0x9d03f640                __vector_dispatch_34
                0x00000001                ASSERT (((_vector_spacing == 0x0) || (SIZEOF (.vector_34) <= (_vector_spacing << 0x5))), function at exception vector 34 too large)

.vector_35      0x9d03f660        0x8
 *(.vector_35)
 .vector_35     0x9d03f660        0x8 /Applications/microchip/xc32/v1.32/bin/bin/../../lib/gcc/pic32mx/4.5.2/../../../../pic32mx/lib/libpic32.a(vector35.o)
                0x9d03f660                __vector_dispatch_35
                0x00000001                ASSERT (((_vector_spacing == 0x0) || (SIZEOF (.vector_35) <= (_vector_spacing << 0x5))), function at exception vector 35 too large)

.vector_36      0x9d03f680        0x8
 *(.vector_36)
 .vector_36     0x9d03f680        0x8 /Applications/microchip/xc32/v1.32/bin/bin/../../lib/gcc/pic32mx/4.5.2/../../../../pic32mx/lib/libpic32.a(vector36.o)
                0x9d03f680                __vector_dispatch_36
                0x00000001                ASSERT (((_vector_spacing == 0x0) || (SIZEOF (.vector_36) <= (_vector_spacing << 0x5))), function at exception vector 36 too large)

.vector_37      0x9d03f6a0        0x8
 *(.vector_37)
 .vector_37     0x9d03f6a0        0x8 /Applications/microchip/xc32/v1.32/bin/bin/../../lib/gcc/pic32mx/4.5.2/../../../../pic32mx/lib/libpic32.a(vector37.o)
                0x9d03f6a0                __vector_dispatch_37
                0x00000001                ASSERT (((_vector_spacing == 0x0) || (SIZEOF (.vector_37) <= (_vector_spacing << 0x5))), function at exception vector 37 too large)

.vector_38      0x9d03f6c0        0x8
 *(.vector_38)
 .vector_38     0x9d03f6c0        0x8 /Applications/microchip/xc32/v1.32/bin/bin/../../lib/gcc/pic32mx/4.5.2/../../../../pic32mx/lib/libpic32.a(vector38.o)
                0x9d03f6c0                __vector_dispatch_38
                0x00000001                ASSERT (((_vector_spacing == 0x0) || (SIZEOF (.vector_38) <= (_vector_spacing << 0x5))), function at exception vector 38 too large)

.vector_39      0x9d03f6e0        0x8
 *(.vector_39)
 .vector_39     0x9d03f6e0        0x8 /Applications/microchip/xc32/v1.32/bin/bin/../../lib/gcc/pic32mx/4.5.2/../../../../pic32mx/lib/libpic32.a(vector39.o)
                0x9d03f6e0                __vector_dispatch_39
                0x00000001                ASSERT (((_vector_spacing == 0x0) || (SIZEOF (.vector_39) <= (_vector_spacing << 0x5))), function at exception vector 39 too large)

.vector_40      0x9d03f700        0x8
 *(.vector_40)
 .vector_40     0x9d03f700        0x8 /Applications/microchip/xc32/v1.32/bin/bin/../../lib/gcc/pic32mx/4.5.2/../../../../pic32mx/lib/libpic32.a(vector40.o)
                0x9d03f700                __vector_dispatch_40
                0x00000001                ASSERT (((_vector_spacing == 0x0) || (SIZEOF (.vector_40) <= (_vector_spacing << 0x5))), function at exception vector 40 too large)

.vector_41      0x9d03f720        0x8
 *(.vector_41)
 .vector_41     0x9d03f720        0x8 /Applications/microchip/xc32/v1.32/bin/bin/../../lib/gcc/pic32mx/4.5.2/../../../../pic32mx/lib/libpic32.a(vector41.o)
                0x9d03f720                __vector_dispatch_41
                0x00000001                ASSERT (((_vector_spacing == 0x0) || (SIZEOF (.vector_41) <= (_vector_spacing << 0x5))), function at exception vector 41 too large)

.vector_42      0x9d03f740        0x8
 *(.vector_42)
 .vector_42     0x9d03f740        0x8 /Applications/microchip/xc32/v1.32/bin/bin/../../lib/gcc/pic32mx/4.5.2/../../../../pic32mx/lib/libpic32.a(vector42.o)
                0x9d03f740                __vector_dispatch_42
                0x00000001                ASSERT (((_vector_spacing == 0x0) || (SIZEOF (.vector_42) <= (_vector_spacing << 0x5))), function at exception vector 42 too large)

.vector_43      0x9d03f760        0x8
 *(.vector_43)
 .vector_43     0x9d03f760        0x8 /Applications/microchip/xc32/v1.32/bin/bin/../../lib/gcc/pic32mx/4.5.2/../../../../pic32mx/lib/libpic32.a(vector43.o)
                0x9d03f760                __vector_dispatch_43
                0x00000001                ASSERT (((_vector_spacing == 0x0) || (SIZEOF (.vector_43) <= (_vector_spacing << 0x5))), function at exception vector 43 too large)

.vector_44      0x9d03f780        0x8
 *(.vector_44)
 .vector_44     0x9d03f780        0x8 /Applications/microchip/xc32/v1.32/bin/bin/../../lib/gcc/pic32mx/4.5.2/../../../../pic32mx/lib/libpic32.a(vector44.o)
                0x9d03f780                __vector_dispatch_44
                0x00000001                ASSERT (((_vector_spacing == 0x0) || (SIZEOF (.vector_44) <= (_vector_spacing << 0x5))), function at exception vector 44 too large)

.vector_45      0x9d03f7a0        0x8
 *(.vector_45)
 .vector_45     0x9d03f7a0        0x8 /Applications/microchip/xc32/v1.32/bin/bin/../../lib/gcc/pic32mx/4.5.2/../../../../pic32mx/lib/libpic32.a(vector45.o)
                0x9d03f7a0                __vector_dispatch_45
                0x00000001                ASSERT (((_vector_spacing == 0x0) || (SIZEOF (.vector_45) <= (_vector_spacing << 0x5))), function at exception vector 45 too large)

.vector_46      0x9d03f7c0        0x8
 *(.vector_46)
 .vector_46     0x9d03f7c0        0x8 /Applications/microchip/xc32/v1.32/bin/bin/../../lib/gcc/pic32mx/4.5.2/../../../../pic32mx/lib/libpic32.a(vector46.o)
                0x9d03f7c0                __vector_dispatch_46
                0x00000001                ASSERT (((_vector_spacing == 0x0) || (SIZEOF (.vector_46) <= (_vector_spacing << 0x5))), function at exception vector 46 too large)

.vector_47      0x9d03f7e0        0x8
 *(.vector_47)
 .vector_47     0x9d03f7e0        0x8 /Applications/microchip/xc32/v1.32/bin/bin/../../lib/gcc/pic32mx/4.5.2/../../../../pic32mx/lib/libpic32.a(vector47.o)
                0x9d03f7e0                __vector_dispatch_47
                0x00000001                ASSERT (((_vector_spacing == 0x0) || (SIZEOF (.vector_47) <= (_vector_spacing << 0x5))), function at exception vector 47 too large)

.vector_48      0x9d03f800        0x8
 *(.vector_48)
 .vector_48     0x9d03f800        0x8 /Applications/microchip/xc32/v1.32/bin/bin/../../lib/gcc/pic32mx/4.5.2/../../../../pic32mx/lib/libpic32.a(vector48.o)
                0x9d03f800                __vector_dispatch_48
                0x00000001                ASSERT (((_vector_spacing == 0x0) || (SIZEOF (.vector_48) <= (_vector_spacing << 0x5))), function at exception vector 48 too large)

.vector_49      0x9d03f820        0x8
 *(.vector_49)
 .vector_49     0x9d03f820        0x8 /Applications/microchip/xc32/v1.32/bin/bin/../../lib/gcc/pic32mx/4.5.2/../../../../pic32mx/lib/libpic32.a(vector49.o)
                0x9d03f820                __vector_dispatch_49
                0x00000001                ASSERT (((_vector_spacing == 0x0) || (SIZEOF (.vector_49) <= (_vector_spacing << 0x5))), function at exception vector 49 too large)

.vector_50      0x9d03f840        0x8
 *(.vector_50)
 .vector_50     0x9d03f840        0x8 /Applications/microchip/xc32/v1.32/bin/bin/../../lib/gcc/pic32mx/4.5.2/../../../../pic32mx/lib/libpic32.a(vector50.o)
                0x9d03f840                __vector_dispatch_50
                0x00000001                ASSERT (((_vector_spacing == 0x0) || (SIZEOF (.vector_50) <= (_vector_spacing << 0x5))), function at exception vector 50 too large)

.vector_51      0x9d03f860        0x8
 *(.vector_51)
 .vector_51     0x9d03f860        0x8 /Applications/microchip/xc32/v1.32/bin/bin/../../lib/gcc/pic32mx/4.5.2/../../../../pic32mx/lib/libpic32.a(vector51.o)
                0x9d03f860                __vector_dispatch_51
                0x00000001                ASSERT (((_vector_spacing == 0x0) || (SIZEOF (.vector_51) <= (_vector_spacing << 0x5))), function at exception vector 51 too large)

.vector_52      0x9d03f880        0x8
 *(.vector_52)
 .vector_52     0x9d03f880        0x8 /Applications/microchip/xc32/v1.32/bin/bin/../../lib/gcc/pic32mx/4.5.2/../../../../pic32mx/lib/libpic32.a(vector52.o)
                0x9d03f880                __vector_dispatch_52
                0x00000001                ASSERT (((_vector_spacing == 0x0) || (SIZEOF (.vector_52) <= (_vector_spacing << 0x5))), function at exception vector 52 too large)

.vector_53      0x9d03f8a0        0x8
 *(.vector_53)
 .vector_53     0x9d03f8a0        0x8 /Applications/microchip/xc32/v1.32/bin/bin/../../lib/gcc/pic32mx/4.5.2/../../../../pic32mx/lib/libpic32.a(vector53.o)
                0x9d03f8a0                __vector_dispatch_53
                0x00000001                ASSERT (((_vector_spacing == 0x0) || (SIZEOF (.vector_53) <= (_vector_spacing << 0x5))), function at exception vector 53 too large)

.vector_54      0x9d03f8c0        0x8
 *(.vector_54)
 .vector_54     0x9d03f8c0        0x8 /Applications/microchip/xc32/v1.32/bin/bin/../../lib/gcc/pic32mx/4.5.2/../../../../pic32mx/lib/libpic32.a(vector54.o)
                0x9d03f8c0                __vector_dispatch_54
                0x00000001                ASSERT (((_vector_spacing == 0x0) || (SIZEOF (.vector_54) <= (_vector_spacing << 0x5))), function at exception vector 54 too large)

.vector_55      0x9d03f8e0        0x8
 *(.vector_55)
 .vector_55     0x9d03f8e0        0x8 /Applications/microchip/xc32/v1.32/bin/bin/../../lib/gcc/pic32mx/4.5.2/../../../../pic32mx/lib/libpic32.a(vector55.o)
                0x9d03f8e0                __vector_dispatch_55
                0x00000001                ASSERT (((_vector_spacing == 0x0) || (SIZEOF (.vector_55) <= (_vector_spacing << 0x5))), function at exception vector 55 too large)

.vector_56      0x9d03f900        0x8
 *(.vector_56)
 .vector_56     0x9d03f900        0x8 /Applications/microchip/xc32/v1.32/bin/bin/../../lib/gcc/pic32mx/4.5.2/../../../../pic32mx/lib/libpic32.a(vector56.o)
                0x9d03f900                __vector_dispatch_56
                0x00000001                ASSERT (((_vector_spacing == 0x0) || (SIZEOF (.vector_56) <= (_vector_spacing << 0x5))), function at exception vector 56 too large)

.vector_57      0x9d03f920        0x8
 *(.vector_57)
 .vector_57     0x9d03f920        0x8 /Applications/microchip/xc32/v1.32/bin/bin/../../lib/gcc/pic32mx/4.5.2/../../../../pic32mx/lib/libpic32.a(vector57.o)
                0x9d03f920                __vector_dispatch_57
                0x00000001                ASSERT (((_vector_spacing == 0x0) || (SIZEOF (.vector_57) <= (_vector_spacing << 0x5))), function at exception vector 57 too large)

.vector_58      0x9d03f940        0x8
 *(.vector_58)
 .vector_58     0x9d03f940        0x8 /Applications/microchip/xc32/v1.32/bin/bin/../../lib/gcc/pic32mx/4.5.2/../../../../pic32mx/lib/libpic32.a(vector58.o)
                0x9d03f940                __vector_dispatch_58
                0x00000001                ASSERT (((_vector_spacing == 0x0) || (SIZEOF (.vector_58) <= (_vector_spacing << 0x5))), function at exception vector 58 too large)

.vector_59      0x9d03f960        0x8
 *(.vector_59)
 .vector_59     0x9d03f960        0x8 /Applications/microchip/xc32/v1.32/bin/bin/../../lib/gcc/pic32mx/4.5.2/../../../../pic32mx/lib/libpic32.a(vector59.o)
                0x9d03f960                __vector_dispatch_59
                0x00000001                ASSERT (((_vector_spacing == 0x0) || (SIZEOF (.vector_59) <= (_vector_spacing << 0x5))), function at exception vector 59 too large)

.vector_60      0x9d03f980        0x8
 *(.vector_60)
 .vector_60     0x9d03f980        0x8 /Applications/microchip/xc32/v1.32/bin/bin/../../lib/gcc/pic32mx/4.5.2/../../../../pic32mx/lib/libpic32.a(vector60.o)
                0x9d03f980                __vector_dispatch_60
                0x00000001                ASSERT (((_vector_spacing == 0x0) || (SIZEOF (.vector_60) <= (_vector_spacing << 0x5))), function at exception vector 60 too large)

.vector_61      0x9d03f9a0        0x8
 *(.vector_61)
 .vector_61     0x9d03f9a0        0x8 /Applications/microchip/xc32/v1.32/bin/bin/../../lib/gcc/pic32mx/4.5.2/../../../../pic32mx/lib/libpic32.a(vector61.o)
                0x9d03f9a0                __vector_dispatch_61
                0x00000001                ASSERT (((_vector_spacing == 0x0) || (SIZEOF (.vector_61) <= (_vector_spacing << 0x5))), function at exception vector 61 too large)

.vector_62      0x9d03f9c0        0x8
 *(.vector_62)
 .vector_62     0x9d03f9c0        0x8 /Applications/microchip/xc32/v1.32/bin/bin/../../lib/gcc/pic32mx/4.5.2/../../../../pic32mx/lib/libpic32.a(vector62.o)
                0x9d03f9c0                __vector_dispatch_62
                0x00000001                ASSERT (((_vector_spacing == 0x0) || (SIZEOF (.vector_62) <= (_vector_spacing << 0x5))), function at exception vector 62 too large)

.vector_63      0x9d03f9e0        0x8
 *(.vector_63)
 .vector_63     0x9d03f9e0        0x8 /Applications/microchip/xc32/v1.32/bin/bin/../../lib/gcc/pic32mx/4.5.2/../../../../pic32mx/lib/libpic32.a(vector63.o)
                0x9d03f9e0                __vector_dispatch_63
                0x00000001                ASSERT (((_vector_spacing == 0x0) || (SIZEOF (.vector_63) <= (_vector_spacing << 0x5))), function at exception vector 63 too large)

.startup
 *(.startup)

.text           0x9d000000        0x0
 *(.stub .gnu.linkonce.t.*)
 *(.text.*personality*)
 *(.mips16.fn.*)
 *(.mips16.call.*)
 *(.gnu.warning)
                0x9d000000                . = ALIGN (0x4)

.init           0x9d000000        0x0
 *crti.o(.init)
 *crtbegin.o(.init)
 *(EXCLUDE_FILE(*crtn.o *crtend?.o *crtend.o) .init)
 *crtend.o(.init)
 *crtn.o(.init)
                0x9d000000                . = ALIGN (0x4)

.fini           0x9d000000        0x0
 *(.fini)
                0x9d000000                . = ALIGN (0x4)

.preinit_array  0x9d000000        0x0
                0x9d000000                PROVIDE (__preinit_array_start, .)
 *(.preinit_array)
                0x9d000000                PROVIDE (__preinit_array_end, .)
                0x9d000000                . = ALIGN (0x4)

.init_array     0x9d000000        0x0
                0x9d000000                PROVIDE (__init_array_start, .)
 *(SORT(.init_array.*))
 *(.init_array)
                0x9d000000                PROVIDE (__init_array_end, .)
                0x9d000000                . = ALIGN (0x4)

.fini_array     0x9d000000        0x0
                0x9d000000                PROVIDE (__fini_array_start, .)
 *(SORT(.fini_array.*))
 *(.fini_array)
                0x9d000000                PROVIDE (__fini_array_end, .)
                0x9d000000                . = ALIGN (0x4)

.ctors          0x9d000000        0x0
 *crtbegin.o(.ctors)
 *crtbegin?.o(.ctors)
 *(EXCLUDE_FILE(*crtend?.o *crtend.o) .ctors)
 *(SORT(.ctors.*))
 *(.ctors)
                0x9d000000                . = ALIGN (0x4)

.dtors          0x9d000000        0x0
 *crtbegin.o(.dtors)
 *crtbegin?.o(.dtors)
 *(EXCLUDE_FILE(*crtend?.o *crtend.o) .dtors)
 *(SORT(.dtors.*))
 *(.dtors)
                0x9d000000                . = ALIGN (0x4)

.rodata         0x9d000000        0x0
 *(.gnu.linkonce.r.*)
 *(.rodata1)
                0x9d000000                . = ALIGN (0x4)

.sdata2         0x9fc00490        0x0
 *(.sdata2 .sdata2.* .gnu.linkonce.s2.*)
                0x9fc00490                . = ALIGN (0x4)

.sbss2          0x9fc00490        0x0
 *(.sbss2 .sbss2.* .gnu.linkonce.sb2.*)
                0x9fc00490                . = ALIGN (0x4)

.eh_frame_hdr
 *(.eh_frame_hdr)
                0x9fc00490                . = ALIGN (0x4)

.eh_frame
 *(.eh_frame)
                0x9fc00490                . = ALIGN (0x4)

.gcc_except_table
 *(.gcc_except_table .gcc_except_table.*)
                0x9fc00490                . = ALIGN (0x4)

.dbg_data       0xa0000000        0x0
                0xa0000000                . = (. + DEFINED (_DEBUGGER)?0x200:0x0)

.jcr            0xa0000000        0x0
 *(.jcr)
                0xa0000000                . = ALIGN (0x4)

.eh_frame       0xa0000000       0x30
 *(.eh_frame)
 .eh_frame      0xa0000000       0x20 /Applications/microchip/xc32/v1.32/bin/bin/../../lib/gcc/pic32mx/4.5.2/libgcc.a(_udivdi3.o)
 .eh_frame      0xa0000020       0x10 /Applications/microchip/xc32/v1.32/bin/bin/../../lib/gcc/pic32mx/4.5.2/libgcc.a(_umoddi3.o)
                0xa0000030                . = ALIGN (0x4)

.gcc_except_table
 *(.gcc_except_table .gcc_except_table.*)
                0xa0000030                . = ALIGN (0x4)

.persist        0xa0000030        0x0
                0xa0000030                _persist_begin = .
 *(.persist .persist.*)
 *(.pbss .pbss.*)
                0xa0000030                . = ALIGN (0x4)
                0xa0000030                _persist_end = .

.data           0xa0000030        0x0
 *(.gnu.linkonce.d.*)
 *(.data1)
                0xa0000030                . = ALIGN (0x4)
                0xa0000030                . = .
                0xa0008020                _gp = (ALIGN (0x10) + 0x7ff0)

.got            0xa0000030        0x0
 *(.got.plt)
 *(.got)
                0xa0000030                . = ALIGN (0x4)

.sdata          0xa0000030       0x14
                0xa0000030                _sdata_begin = .
 *(.sdata .sdata.* .gnu.linkonce.s.*)
 .sdata         0xa0000030        0x4 build/EXPLORER_16_PIC32MX270F256D/production/_ext/332309696/port.o
                0xa0000030                uxInterruptNesting
 .sdata         0xa0000034        0x4 build/EXPLORER_16_PIC32MX270F256D/production/_ext/1163846883/IntQueue.o
 .sdata         0xa0000038        0x8 build/EXPLORER_16_PIC32MX270F256D/production/_ext/1472/main_full.o
 .sdata         0xa0000040        0x4 /Applications/microchip/xc32/v1.32/bin/bin/../../lib/gcc/pic32mx/4.5.2/../../../../pic32mx/lib/libc.a(_iob.o)
                0xa0000040                _Files
                0xa0000044                . = ALIGN (0x4)
                0xa0000044                _sdata_end = .

.lit8
 *(.lit8)

.lit4
 *(.lit4)
                0xa0000044                . = ALIGN (0x4)
                0xa0000044                _data_end = .
                0xa0000044                _bss_begin = .

.sbss           0xa0000044      0x16c
                0xa0000044                _sbss_begin = .
 *(.dynsbss)
 *(.sbss .sbss.* .gnu.linkonce.sb.*)
 .sbss          0xa0000044        0x4 build/EXPLORER_16_PIC32MX270F256D/production/_ext/332309696/port.o
                0xa0000044                uxSavedTaskStackPointer
 .sbss          0xa0000048       0x38 build/EXPLORER_16_PIC32MX270F256D/production/_ext/449926602/tasks.o
                0xa0000048                pxCurrentTCB
 .sbss          0xa0000080       0x10 build/EXPLORER_16_PIC32MX270F256D/production/_ext/449926602/timers.o
 .sbss          0xa0000090       0x18 build/EXPLORER_16_PIC32MX270F256D/production/_ext/1884096877/heap_4.o
 .sbss          0xa00000a8       0x20 build/EXPLORER_16_PIC32MX270F256D/production/_ext/1163846883/blocktim.o
 .sbss          0xa00000c8        0x8 build/EXPLORER_16_PIC32MX270F256D/production/_ext/1163846883/comtest.o
 .sbss          0xa00000d0       0x14 build/EXPLORER_16_PIC32MX270F256D/production/_ext/1163846883/semtest.o
 .sbss          0xa00000e4        0xc build/EXPLORER_16_PIC32MX270F256D/production/_ext/1163846883/QPeek.o
 .sbss          0xa00000f0       0x40 build/EXPLORER_16_PIC32MX270F256D/production/_ext/1163846883/IntQueue.o
                0xa00000f0                uxValueForNormallyEmptyQueue
                0xa00000f4                uxValueForNormallyFullQueue
 .sbss          0xa0000130       0x20 build/EXPLORER_16_PIC32MX270F256D/production/_ext/1163846883/GenQTest.o
 .sbss          0xa0000150       0x14 build/EXPLORER_16_PIC32MX270F256D/production/_ext/821501661/serial.o
 .sbss          0xa0000164        0xc build/EXPLORER_16_PIC32MX270F256D/production/_ext/1472/timertest.o
                0xa0000164                ulHighFrequencyTimerInterrupts
 .sbss          0xa0000170        0x4 build/EXPLORER_16_PIC32MX270F256D/production/_ext/1472/main_blinky.o
 .sbss          0xa0000174       0x18 build/EXPLORER_16_PIC32MX270F256D/production/_ext/1472/main_full.o
                0xa0000174                ulRegTest1Cycles
                0xa0000178                ulRegTest2Cycles
 .sbss          0xa000018c        0x1 /Applications/microchip/xc32/v1.32/bin/bin/../../lib/gcc/pic32mx/4.5.2/../../../../pic32mx/lib/libc.a(_iob.o)
                0xa000018c                _outdone
 *(.scommon)
 *fill*         0xa000018d        0x3 
 .scommon       0xa0000190        0xc build/EXPLORER_16_PIC32MX270F256D/production/_ext/1163846883/QPeek.o
                0xa0000190                xHighPriorityTask
                0xa0000194                xMediumPriorityTask
                0xa0000198                xHighestPriorityTask
 .scommon       0xa000019c       0x10 build/EXPLORER_16_PIC32MX270F256D/production/_ext/1163846883/IntQueue.o
                0xa000019c                xHighPriorityNormallyEmptyTask2
                0xa00001a0                xHighPriorityNormallyFullTask1
                0xa00001a4                xHighPriorityNormallyEmptyTask1
                0xa00001a8                xHighPriorityNormallyFullTask2
 .scommon       0xa00001ac        0x4 build/EXPLORER_16_PIC32MX270F256D/production/_ext/1472/lcd.o
                0xa00001ac                xLCDQueue
                0xa00001b0                _sbss_end = .
                0xa00001b0                . = ALIGN (0x4)

.bss            0xa00001b0        0x0
 *(.dynbss)
 *(COMMON)
                0xa00001b0                . = ALIGN ((. != 0x0)?0x4:0x1)
                0xa00001b0                . = ALIGN (0x4)
                0xa00001b0                _end = .
                0xa00001b0                _bss_end = .
                0x00010000                _bmxdudba_address = 0x10000
                0x00010000                _bmxdupba_address = 0x10000

/DISCARD/
 *(.pdr)
 *(.rel.dyn)
 *(.note.GNU-stack)
 *(.note.GNU-stack)
 *(.gnu_debuglink)
 *(.gnu.lto_*)
 *(.discard)

.gptab.sdata
 *(.gptab.data)
 *(.gptab.sdata)

.gptab.sbss
 *(.gptab.bss)
 *(.gptab.sbss)

.mdebug.abi32   0xa00001b0        0x0
 *(.mdebug.abi32)
 .mdebug.abi32  0xa00001b0        0x0 build/EXPLORER_16_PIC32MX270F256D/production/_ext/332309696/port.o
 .mdebug.abi32  0xa00001b0        0x0 build/EXPLORER_16_PIC32MX270F256D/production/_ext/449926602/queue.o
 .mdebug.abi32  0xa00001b0        0x0 build/EXPLORER_16_PIC32MX270F256D/production/_ext/449926602/tasks.o
 .mdebug.abi32  0xa00001b0        0x0 build/EXPLORER_16_PIC32MX270F256D/production/_ext/449926602/list.o
 .mdebug.abi32  0xa00001b0        0x0 build/EXPLORER_16_PIC32MX270F256D/production/_ext/449926602/timers.o
 .mdebug.abi32  0xa00001b0        0x0 build/EXPLORER_16_PIC32MX270F256D/production/_ext/1884096877/heap_4.o
 .mdebug.abi32  0xa00001b0        0x0 build/EXPLORER_16_PIC32MX270F256D/production/_ext/1163846883/blocktim.o
 .mdebug.abi32  0xa00001b0        0x0 build/EXPLORER_16_PIC32MX270F256D/production/_ext/1163846883/comtest.o
 .mdebug.abi32  0xa00001b0        0x0 build/EXPLORER_16_PIC32MX270F256D/production/_ext/1163846883/semtest.o
 .mdebug.abi32  0xa00001b0        0x0 build/EXPLORER_16_PIC32MX270F256D/production/_ext/1163846883/QPeek.o
 .mdebug.abi32  0xa00001b0        0x0 build/EXPLORER_16_PIC32MX270F256D/production/_ext/1163846883/IntQueue.o
 .mdebug.abi32  0xa00001b0        0x0 build/EXPLORER_16_PIC32MX270F256D/production/_ext/1163846883/GenQTest.o
 .mdebug.abi32  0xa00001b0        0x0 build/EXPLORER_16_PIC32MX270F256D/production/_ext/1163846883/flash_timer.o
 .mdebug.abi32  0xa00001b0        0x0 build/EXPLORER_16_PIC32MX270F256D/production/_ext/1472/main.o
 .mdebug.abi32  0xa00001b0        0x0 build/EXPLORER_16_PIC32MX270F256D/production/_ext/1472/lcd.o
 .mdebug.abi32  0xa00001b0        0x0 build/EXPLORER_16_PIC32MX270F256D/production/_ext/821501661/serial.o
 .mdebug.abi32  0xa00001b0        0x0 build/EXPLORER_16_PIC32MX270F256D/production/_ext/1472/timertest.o
 .mdebug.abi32  0xa00001b0        0x0 build/EXPLORER_16_PIC32MX270F256D/production/_ext/1472/IntQueueTimer.o
 .mdebug.abi32  0xa00001b0        0x0 build/EXPLORER_16_PIC32MX270F256D/production/_ext/1472/printf-stdarg.o
 .mdebug.abi32  0xa00001b0        0x0 build/EXPLORER_16_PIC32MX270F256D/production/_ext/1472/main_blinky.o
 .mdebug.abi32  0xa00001b0        0x0 build/EXPLORER_16_PIC32MX270F256D/production/_ext/1472/main_full.o
 .mdebug.abi32  0xa00001b0        0x0 build/EXPLORER_16_PIC32MX270F256D/production/_ext/1472/ConfigPerformance.o
 .mdebug.abi32  0xa00001b0        0x0 build/EXPLORER_16_PIC32MX270F256D/production/_ext/809743516/ParTest_Explorer16.o
 .mdebug.abi32  0xa00001b0        0x0 /Applications/microchip/xc32/v1.32/bin/bin/../../lib/gcc/pic32mx/4.5.2/../../../../pic32mx/lib/libmchp_peripheral_32MX270F256D.a(int_configure_system_lib.o)
 .mdebug.abi32  0xa00001b0        0x0 /Applications/microchip/xc32/v1.32/bin/bin/../../lib/gcc/pic32mx/4.5.2/../../../../pic32mx/lib/libmchp_peripheral_32MX270F256D.a(int_enable_interrupts_lib.o)
 .mdebug.abi32  0xa00001b0        0x0 /Applications/microchip/xc32/v1.32/bin/bin/../../lib/gcc/pic32mx/4.5.2/../../../../pic32mx/lib/libmchp_peripheral_32MX270F256D.a(int_disable_interrupts_lib.o)
 .mdebug.abi32  0xa00001b0        0x0 /Applications/microchip/xc32/v1.32/bin/bin/../../lib/gcc/pic32mx/4.5.2/../../../../pic32mx/lib/libmchp_peripheral_32MX270F256D.a(int_restore_interrupts_lib.o)
 .mdebug.abi32  0xa00001b0        0x0 /Applications/microchip/xc32/v1.32/bin/bin/../../lib/gcc/pic32mx/4.5.2/../../../../pic32mx/lib/libmchp_peripheral_32MX270F256D.a(int_tbl_lib.o)
 .mdebug.abi32  0xa00001b0        0x0 /Applications/microchip/xc32/v1.32/bin/bin/../../lib/gcc/pic32mx/4.5.2/../../../../pic32mx/lib/libmchp_peripheral_32MX270F256D.a(uart_lib.o)
 .mdebug.abi32  0xa00001b0        0x0 /Applications/microchip/xc32/v1.32/bin/bin/../../lib/gcc/pic32mx/4.5.2/../../../../pic32mx/lib/libpic32.a(default-bootstrap-exception-handler.o)
 .mdebug.abi32  0xa00001b0        0x0 /Applications/microchip/xc32/v1.32/bin/bin/../../lib/gcc/pic32mx/4.5.2/../../../../pic32mx/lib/libpic32.a(default-on-reset.o)
 .mdebug.abi32  0xa00001b0        0x0 /Applications/microchip/xc32/v1.32/bin/bin/../../lib/gcc/pic32mx/4.5.2/../../../../pic32mx/lib/libpic32.a(default-on-bootstrap.o)
 .mdebug.abi32  0xa00001b0        0x0 /Applications/microchip/xc32/v1.32/bin/bin/../../lib/gcc/pic32mx/4.5.2/../../../../pic32mx/lib/libpic32.a(defaultinterrupt.o)
 .mdebug.abi32  0xa00001b0        0x0 /Applications/microchip/xc32/v1.32/bin/bin/../../lib/gcc/pic32mx/4.5.2/../../../../pic32mx/lib/libc.a(putchar.o)
 .mdebug.abi32  0xa00001b0        0x0 /Applications/microchip/xc32/v1.32/bin/bin/../../lib/gcc/pic32mx/4.5.2/../../../../pic32mx/lib/libc.a(sprintf_cdnopuxX.eo)
 .mdebug.abi32  0xa00001b0        0x0 /Applications/microchip/xc32/v1.32/bin/bin/../../lib/gcc/pic32mx/4.5.2/../../../../pic32mx/lib/libc.a(_iob.o)
 .mdebug.abi32  0xa00001b0        0x0 /Applications/microchip/xc32/v1.32/bin/bin/../../lib/gcc/pic32mx/4.5.2/../../../../pic32mx/lib/libc.a(_fputc_simple.o)
 .mdebug.abi32  0xa00001b0        0x0 /Applications/microchip/xc32/v1.32/bin/bin/../../lib/gcc/pic32mx/4.5.2/../../../../pic32mx/lib/libc.a(doprnt_cdnopuxX.eo)
 .mdebug.abi32  0xa00001b0        0x0 /Applications/microchip/xc32/v1.32/bin/bin/../../lib/gcc/pic32mx/4.5.2/../../../../pic32mx/lib/libc.a(_flsbuf_simple.o)
 .mdebug.abi32  0xa00001b0        0x0 /Applications/microchip/xc32/v1.32/bin/bin/../../lib/gcc/pic32mx/4.5.2/../../../../pic32mx/lib/libc.a(ctype.o)
 .mdebug.abi32  0xa00001b0        0x0 /Applications/microchip/xc32/v1.32/bin/bin/../../lib/gcc/pic32mx/4.5.2/libgcc.a(_udivdi3.o)
 .mdebug.abi32  0xa00001b0        0x0 /Applications/microchip/xc32/v1.32/bin/bin/../../lib/gcc/pic32mx/4.5.2/libgcc.a(_umoddi3.o)

.mdebug.abiN32
 *(.mdebug.abiN32)

.mdebug.abi64
 *(.mdebug.abi64)

.mdebug.abiO64
 *(.mdebug.abiO64)

.mdebug.eabi32
 *(.mdebug.eabi32)

.mdebug.eabi64
 *(.mdebug.eabi64)

.gcc_compiled_long32
 *(.gcc_compiled_long32)

.gcc_compiled_long64
 *(.gcc_compiled_long64)

.stab
 *(.stab)

.stabstr
 *(.stabstr)

.stab.excl
 *(.stab.excl)

.stab.exclstr
 *(.stab.exclstr)

.stab.index
 *(.stab.index)

.stab.indexstr
 *(.stab.indexstr)

.comment        0x00000000       0xf6
 *(.comment)
 .comment       0x00000000       0x3c build/EXPLORER_16_PIC32MX270F256D/production/_ext/332309696/port.o
                                 0x3d (size before relaxing)
 .comment       0x00000000       0x3d build/EXPLORER_16_PIC32MX270F256D/production/_ext/449926602/queue.o
 .comment       0x00000000       0x3d build/EXPLORER_16_PIC32MX270F256D/production/_ext/449926602/tasks.o
 .comment       0x00000000       0x3d build/EXPLORER_16_PIC32MX270F256D/production/_ext/449926602/list.o
 .comment       0x00000000       0x3d build/EXPLORER_16_PIC32MX270F256D/production/_ext/449926602/timers.o
 .comment       0x00000000       0x3d build/EXPLORER_16_PIC32MX270F256D/production/_ext/1884096877/heap_4.o
 .comment       0x00000000       0x3d build/EXPLORER_16_PIC32MX270F256D/production/_ext/1163846883/blocktim.o
 .comment       0x00000000       0x3d build/EXPLORER_16_PIC32MX270F256D/production/_ext/1163846883/comtest.o
 .comment       0x00000000       0x3d build/EXPLORER_16_PIC32MX270F256D/production/_ext/1163846883/semtest.o
 .comment       0x00000000       0x3d build/EXPLORER_16_PIC32MX270F256D/production/_ext/1163846883/QPeek.o
 .comment       0x00000000       0x3d build/EXPLORER_16_PIC32MX270F256D/production/_ext/1163846883/IntQueue.o
 .comment       0x00000000       0x3d build/EXPLORER_16_PIC32MX270F256D/production/_ext/1163846883/GenQTest.o
 .comment       0x00000000       0x3d build/EXPLORER_16_PIC32MX270F256D/production/_ext/1163846883/flash_timer.o
 .comment       0x00000000       0x3d build/EXPLORER_16_PIC32MX270F256D/production/_ext/1472/main.o
 .comment       0x00000000       0x3d build/EXPLORER_16_PIC32MX270F256D/production/_ext/1472/lcd.o
 .comment       0x00000000       0x3d build/EXPLORER_16_PIC32MX270F256D/production/_ext/821501661/serial.o
 .comment       0x00000000       0x3d build/EXPLORER_16_PIC32MX270F256D/production/_ext/1472/timertest.o
 .comment       0x00000000       0x3d build/EXPLORER_16_PIC32MX270F256D/production/_ext/1472/IntQueueTimer.o
 .comment       0x00000000       0x3d build/EXPLORER_16_PIC32MX270F256D/production/_ext/1472/printf-stdarg.o
 .comment       0x00000000       0x3d build/EXPLORER_16_PIC32MX270F256D/production/_ext/1472/main_blinky.o
 .comment       0x00000000       0x3d build/EXPLORER_16_PIC32MX270F256D/production/_ext/1472/main_full.o
 .comment       0x00000000       0x3d build/EXPLORER_16_PIC32MX270F256D/production/_ext/1472/ConfigPerformance.o
 .comment       0x00000000       0x3d build/EXPLORER_16_PIC32MX270F256D/production/_ext/809743516/ParTest_Explorer16.o
 .comment       0x0000003c       0x3c /Applications/microchip/xc32/v1.32/bin/bin/../../lib/gcc/pic32mx/4.5.2/../../../../pic32mx/lib/libmchp_peripheral_32MX270F256D.a(int_configure_system_lib.o)
                                 0x3d (size before relaxing)
 .comment       0x00000000       0x3d /Applications/microchip/xc32/v1.32/bin/bin/../../lib/gcc/pic32mx/4.5.2/../../../../pic32mx/lib/libmchp_peripheral_32MX270F256D.a(int_enable_interrupts_lib.o)
 .comment       0x00000000       0x3d /Applications/microchip/xc32/v1.32/bin/bin/../../lib/gcc/pic32mx/4.5.2/../../../../pic32mx/lib/libmchp_peripheral_32MX270F256D.a(int_disable_interrupts_lib.o)
 .comment       0x00000000       0x3d /Applications/microchip/xc32/v1.32/bin/bin/../../lib/gcc/pic32mx/4.5.2/../../../../pic32mx/lib/libmchp_peripheral_32MX270F256D.a(int_restore_interrupts_lib.o)
 .comment       0x00000000       0x3d /Applications/microchip/xc32/v1.32/bin/bin/../../lib/gcc/pic32mx/4.5.2/../../../../pic32mx/lib/libmchp_peripheral_32MX270F256D.a(int_tbl_lib.o)
 .comment       0x00000000       0x3d /Applications/microchip/xc32/v1.32/bin/bin/../../lib/gcc/pic32mx/4.5.2/../../../../pic32mx/lib/libmchp_peripheral_32MX270F256D.a(uart_lib.o)
 .comment       0x00000078       0x18 /Applications/microchip/xc32/v1.32/bin/bin/../../lib/gcc/pic32mx/4.5.2/../../../../pic32mx/lib/libpic32.a(memcmp.o)
                                 0x19 (size before relaxing)
 .comment       0x00000090       0x18 /Applications/microchip/xc32/v1.32/bin/bin/../../lib/gcc/pic32mx/4.5.2/../../../../pic32mx/lib/libpic32.a(memset.o)
                                 0x19 (size before relaxing)
 .comment       0x00000000       0x3d /Applications/microchip/xc32/v1.32/bin/bin/../../lib/gcc/pic32mx/4.5.2/../../../../pic32mx/lib/libpic32.a(default-bootstrap-exception-handler.o)
 .comment       0x00000000       0x3d /Applications/microchip/xc32/v1.32/bin/bin/../../lib/gcc/pic32mx/4.5.2/../../../../pic32mx/lib/libpic32.a(default-on-reset.o)
 .comment       0x00000000       0x3d /Applications/microchip/xc32/v1.32/bin/bin/../../lib/gcc/pic32mx/4.5.2/../../../../pic32mx/lib/libpic32.a(default-on-bootstrap.o)
 .comment       0x00000000       0x3d /Applications/microchip/xc32/v1.32/bin/bin/../../lib/gcc/pic32mx/4.5.2/../../../../pic32mx/lib/libpic32.a(defaultinterrupt.o)
 .comment       0x00000000       0x3d /Applications/microchip/xc32/v1.32/bin/bin/../../lib/gcc/pic32mx/4.5.2/../../../../pic32mx/lib/libc.a(putchar.o)
 .comment       0x00000000       0x3d /Applications/microchip/xc32/v1.32/bin/bin/../../lib/gcc/pic32mx/4.5.2/../../../../pic32mx/lib/libc.a(sprintf_cdnopuxX.eo)
 .comment       0x00000000       0x3d /Applications/microchip/xc32/v1.32/bin/bin/../../lib/gcc/pic32mx/4.5.2/../../../../pic32mx/lib/libc.a(_iob.o)
 .comment       0x00000000       0x3d /Applications/microchip/xc32/v1.32/bin/bin/../../lib/gcc/pic32mx/4.5.2/../../../../pic32mx/lib/libc.a(_fputc_simple.o)
 .comment       0x00000000       0x3d /Applications/microchip/xc32/v1.32/bin/bin/../../lib/gcc/pic32mx/4.5.2/../../../../pic32mx/lib/libc.a(doprnt_cdnopuxX.eo)
 .comment       0x00000000       0x3d /Applications/microchip/xc32/v1.32/bin/bin/../../lib/gcc/pic32mx/4.5.2/../../../../pic32mx/lib/libc.a(_flsbuf_simple.o)
 .comment       0x000000a8       0x4e /Applications/microchip/xc32/v1.32/bin/bin/../../lib/gcc/pic32mx/4.5.2/../../../../pic32mx/lib/libc.a(ctype.o)
                                 0x8b (size before relaxing)
 .comment       0x00000000       0x3d /Applications/microchip/xc32/v1.32/bin/bin/../../lib/gcc/pic32mx/4.5.2/libgcc.a(_udivdi3.o)
 .comment       0x00000000       0x3d /Applications/microchip/xc32/v1.32/bin/bin/../../lib/gcc/pic32mx/4.5.2/libgcc.a(_umoddi3.o)

.debug
 *(.debug)

.line
 *(.line)

.debug_srcinfo
 *(.debug_srcinfo)

.debug_sfnames
 *(.debug_sfnames)

.debug_aranges  0x00000000      0x618
 *(.debug_aranges)
 .debug_aranges
                0x00000000       0x20 build/EXPLORER_16_PIC32MX270F256D/production/_ext/332309696/port.o
 .debug_aranges
                0x00000020       0x20 build/EXPLORER_16_PIC32MX270F256D/production/_ext/332309696/port_asm.o
 .debug_aranges
                0x00000040       0x20 build/EXPLORER_16_PIC32MX270F256D/production/_ext/449926602/queue.o
 .debug_aranges
                0x00000060       0x20 build/EXPLORER_16_PIC32MX270F256D/production/_ext/449926602/tasks.o
 .debug_aranges
                0x00000080       0x20 build/EXPLORER_16_PIC32MX270F256D/production/_ext/449926602/list.o
 .debug_aranges
                0x000000a0       0x20 build/EXPLORER_16_PIC32MX270F256D/production/_ext/449926602/timers.o
 .debug_aranges
                0x000000c0       0x20 build/EXPLORER_16_PIC32MX270F256D/production/_ext/1884096877/heap_4.o
 .debug_aranges
                0x000000e0       0x20 build/EXPLORER_16_PIC32MX270F256D/production/_ext/1163846883/blocktim.o
 .debug_aranges
                0x00000100       0x20 build/EXPLORER_16_PIC32MX270F256D/production/_ext/1163846883/comtest.o
 .debug_aranges
                0x00000120       0x20 build/EXPLORER_16_PIC32MX270F256D/production/_ext/1163846883/semtest.o
 .debug_aranges
                0x00000140       0x20 build/EXPLORER_16_PIC32MX270F256D/production/_ext/1163846883/QPeek.o
 .debug_aranges
                0x00000160       0x20 build/EXPLORER_16_PIC32MX270F256D/production/_ext/1163846883/IntQueue.o
 .debug_aranges
                0x00000180       0x20 build/EXPLORER_16_PIC32MX270F256D/production/_ext/1163846883/GenQTest.o
 .debug_aranges
                0x000001a0       0x20 build/EXPLORER_16_PIC32MX270F256D/production/_ext/1163846883/flash_timer.o
 .debug_aranges
                0x000001c0       0x20 build/EXPLORER_16_PIC32MX270F256D/production/_ext/1472/main.o
 .debug_aranges
                0x000001e0       0x20 build/EXPLORER_16_PIC32MX270F256D/production/_ext/1472/RegisterTestTasks.o
 .debug_aranges
                0x00000200       0x20 build/EXPLORER_16_PIC32MX270F256D/production/_ext/1472/lcd.o
 .debug_aranges
                0x00000220       0x20 build/EXPLORER_16_PIC32MX270F256D/production/_ext/821501661/serial.o
 .debug_aranges
                0x00000240       0x20 build/EXPLORER_16_PIC32MX270F256D/production/_ext/821501661/serial_isr.o
 .debug_aranges
                0x00000260       0x20 build/EXPLORER_16_PIC32MX270F256D/production/_ext/1472/timertest.o
 .debug_aranges
                0x00000280       0x20 build/EXPLORER_16_PIC32MX270F256D/production/_ext/1472/timertest_isr.o
 .debug_aranges
                0x000002a0       0x20 build/EXPLORER_16_PIC32MX270F256D/production/_ext/1472/IntQueueTimer.o
 .debug_aranges
                0x000002c0       0x20 build/EXPLORER_16_PIC32MX270F256D/production/_ext/1472/IntQueueTimer_isr.o
 .debug_aranges
                0x000002e0       0x20 build/EXPLORER_16_PIC32MX270F256D/production/_ext/1472/printf-stdarg.o
 .debug_aranges
                0x00000300       0x20 build/EXPLORER_16_PIC32MX270F256D/production/_ext/1472/main_blinky.o
 .debug_aranges
                0x00000320       0x20 build/EXPLORER_16_PIC32MX270F256D/production/_ext/1472/main_full.o
 .debug_aranges
                0x00000340       0x20 build/EXPLORER_16_PIC32MX270F256D/production/_ext/1472/ConfigPerformance.o
 .debug_aranges
                0x00000360       0x20 build/EXPLORER_16_PIC32MX270F256D/production/_ext/809743516/ParTest_Explorer16.o
 .debug_aranges
                0x00000380       0x20 /Applications/microchip/xc32/v1.32/bin/bin/../../lib/gcc/pic32mx/4.5.2/../../../../pic32mx/lib/libmchp_peripheral_32MX270F256D.a(int_configure_system_lib.o)
 .debug_aranges
                0x000003a0       0x20 /Applications/microchip/xc32/v1.32/bin/bin/../../lib/gcc/pic32mx/4.5.2/../../../../pic32mx/lib/libmchp_peripheral_32MX270F256D.a(int_enable_interrupts_lib.o)
 .debug_aranges
                0x000003c0       0x20 /Applications/microchip/xc32/v1.32/bin/bin/../../lib/gcc/pic32mx/4.5.2/../../../../pic32mx/lib/libmchp_peripheral_32MX270F256D.a(int_disable_interrupts_lib.o)
 .debug_aranges
                0x000003e0       0x20 /Applications/microchip/xc32/v1.32/bin/bin/../../lib/gcc/pic32mx/4.5.2/../../../../pic32mx/lib/libmchp_peripheral_32MX270F256D.a(int_restore_interrupts_lib.o)
 .debug_aranges
                0x00000400       0x60 /Applications/microchip/xc32/v1.32/bin/bin/../../lib/gcc/pic32mx/4.5.2/../../../../pic32mx/lib/libmchp_peripheral_32MX270F256D.a(int_tbl_lib.o)
 .debug_aranges
                0x00000460       0x58 /Applications/microchip/xc32/v1.32/bin/bin/../../lib/gcc/pic32mx/4.5.2/../../../../pic32mx/lib/libmchp_peripheral_32MX270F256D.a(uart_lib.o)
 .debug_aranges
                0x000004b8       0x20 /Applications/microchip/xc32/v1.32/bin/bin/../../lib/gcc/pic32mx/4.5.2/../../../../pic32mx/lib/libpic32.a(default-bootstrap-exception-handler.o)
 .debug_aranges
                0x000004d8       0x20 /Applications/microchip/xc32/v1.32/bin/bin/../../lib/gcc/pic32mx/4.5.2/../../../../pic32mx/lib/libpic32.a(default-on-reset.o)
 .debug_aranges
                0x000004f8       0x20 /Applications/microchip/xc32/v1.32/bin/bin/../../lib/gcc/pic32mx/4.5.2/../../../../pic32mx/lib/libpic32.a(default-on-bootstrap.o)
 .debug_aranges
                0x00000518       0x20 /Applications/microchip/xc32/v1.32/bin/bin/../../lib/gcc/pic32mx/4.5.2/../../../../pic32mx/lib/libpic32.a(defaultinterrupt.o)
 .debug_aranges
                0x00000538       0x20 /Applications/microchip/xc32/v1.32/bin/bin/../../lib/gcc/pic32mx/4.5.2/../../../../pic32mx/lib/libc.a(putchar.o)
 .debug_aranges
                0x00000558       0x20 /Applications/microchip/xc32/v1.32/bin/bin/../../lib/gcc/pic32mx/4.5.2/../../../../pic32mx/lib/libc.a(sprintf_cdnopuxX.eo)
 .debug_aranges
                0x00000578       0x20 /Applications/microchip/xc32/v1.32/bin/bin/../../lib/gcc/pic32mx/4.5.2/../../../../pic32mx/lib/libc.a(_fputc_simple.o)
 .debug_aranges
                0x00000598       0x20 /Applications/microchip/xc32/v1.32/bin/bin/../../lib/gcc/pic32mx/4.5.2/../../../../pic32mx/lib/libc.a(doprnt_cdnopuxX.eo)
 .debug_aranges
                0x000005b8       0x20 /Applications/microchip/xc32/v1.32/bin/bin/../../lib/gcc/pic32mx/4.5.2/../../../../pic32mx/lib/libc.a(_flsbuf_simple.o)
 .debug_aranges
                0x000005d8       0x20 /Applications/microchip/xc32/v1.32/bin/bin/../../lib/gcc/pic32mx/4.5.2/libgcc.a(_udivdi3.o)
 .debug_aranges
                0x000005f8       0x20 /Applications/microchip/xc32/v1.32/bin/bin/../../lib/gcc/pic32mx/4.5.2/libgcc.a(_umoddi3.o)

.debug_pubnames
                0x00000000     0x13a3
 *(.debug_pubnames)
 .debug_pubnames
                0x00000000      0x130 build/EXPLORER_16_PIC32MX270F256D/production/_ext/332309696/port.o
 .debug_pubnames
                0x00000130      0x20b build/EXPLORER_16_PIC32MX270F256D/production/_ext/449926602/queue.o
 .debug_pubnames
                0x0000033b      0x42f build/EXPLORER_16_PIC32MX270F256D/production/_ext/449926602/tasks.o
 .debug_pubnames
                0x0000076a       0x72 build/EXPLORER_16_PIC32MX270F256D/production/_ext/449926602/list.o
 .debug_pubnames
                0x000007dc       0xb1 build/EXPLORER_16_PIC32MX270F256D/production/_ext/449926602/timers.o
 .debug_pubnames
                0x0000088d       0x88 build/EXPLORER_16_PIC32MX270F256D/production/_ext/1884096877/heap_4.o
 .debug_pubnames
                0x00000915       0x53 build/EXPLORER_16_PIC32MX270F256D/production/_ext/1163846883/blocktim.o
 .debug_pubnames
                0x00000968       0x4d build/EXPLORER_16_PIC32MX270F256D/production/_ext/1163846883/comtest.o
 .debug_pubnames
                0x000009b5       0x4e build/EXPLORER_16_PIC32MX270F256D/production/_ext/1163846883/semtest.o
 .debug_pubnames
                0x00000a03       0x95 build/EXPLORER_16_PIC32MX270F256D/production/_ext/1163846883/QPeek.o
 .debug_pubnames
                0x00000a98      0x150 build/EXPLORER_16_PIC32MX270F256D/production/_ext/1163846883/IntQueue.o
 .debug_pubnames
                0x00000be8       0x54 build/EXPLORER_16_PIC32MX270F256D/production/_ext/1163846883/GenQTest.o
 .debug_pubnames
                0x00000c3c       0x2b build/EXPLORER_16_PIC32MX270F256D/production/_ext/1163846883/flash_timer.o
 .debug_pubnames
                0x00000c67       0xc1 build/EXPLORER_16_PIC32MX270F256D/production/_ext/1472/main.o
 .debug_pubnames
                0x00000d28       0x32 build/EXPLORER_16_PIC32MX270F256D/production/_ext/1472/lcd.o
 .debug_pubnames
                0x00000d5a       0x7c build/EXPLORER_16_PIC32MX270F256D/production/_ext/821501661/serial.o
 .debug_pubnames
                0x00000dd6       0x61 build/EXPLORER_16_PIC32MX270F256D/production/_ext/1472/timertest.o
 .debug_pubnames
                0x00000e37       0x66 build/EXPLORER_16_PIC32MX270F256D/production/_ext/1472/IntQueueTimer.o
 .debug_pubnames
                0x00000e9d       0x40 build/EXPLORER_16_PIC32MX270F256D/production/_ext/1472/printf-stdarg.o
 .debug_pubnames
                0x00000edd       0x22 build/EXPLORER_16_PIC32MX270F256D/production/_ext/1472/main_blinky.o
 .debug_pubnames
                0x00000eff       0x4a build/EXPLORER_16_PIC32MX270F256D/production/_ext/1472/main_full.o
 .debug_pubnames
                0x00000f49       0x5c build/EXPLORER_16_PIC32MX270F256D/production/_ext/1472/ConfigPerformance.o
 .debug_pubnames
                0x00000fa5       0x52 build/EXPLORER_16_PIC32MX270F256D/production/_ext/809743516/ParTest_Explorer16.o
 .debug_pubnames
                0x00000ff7       0x29 /Applications/microchip/xc32/v1.32/bin/bin/../../lib/gcc/pic32mx/4.5.2/../../../../pic32mx/lib/libmchp_peripheral_32MX270F256D.a(int_configure_system_lib.o)
 .debug_pubnames
                0x00001020       0x2a /Applications/microchip/xc32/v1.32/bin/bin/../../lib/gcc/pic32mx/4.5.2/../../../../pic32mx/lib/libmchp_peripheral_32MX270F256D.a(int_enable_interrupts_lib.o)
 .debug_pubnames
                0x0000104a       0x2b /Applications/microchip/xc32/v1.32/bin/bin/../../lib/gcc/pic32mx/4.5.2/../../../../pic32mx/lib/libmchp_peripheral_32MX270F256D.a(int_disable_interrupts_lib.o)
 .debug_pubnames
                0x00001075       0x2b /Applications/microchip/xc32/v1.32/bin/bin/../../lib/gcc/pic32mx/4.5.2/../../../../pic32mx/lib/libmchp_peripheral_32MX270F256D.a(int_restore_interrupts_lib.o)
 .debug_pubnames
                0x000010a0       0xca /Applications/microchip/xc32/v1.32/bin/bin/../../lib/gcc/pic32mx/4.5.2/../../../../pic32mx/lib/libmchp_peripheral_32MX270F256D.a(int_tbl_lib.o)
 .debug_pubnames
                0x0000116a       0xb1 /Applications/microchip/xc32/v1.32/bin/bin/../../lib/gcc/pic32mx/4.5.2/../../../../pic32mx/lib/libmchp_peripheral_32MX270F256D.a(uart_lib.o)
 .debug_pubnames
                0x0000121b       0x33 /Applications/microchip/xc32/v1.32/bin/bin/../../lib/gcc/pic32mx/4.5.2/../../../../pic32mx/lib/libpic32.a(default-bootstrap-exception-handler.o)
 .debug_pubnames
                0x0000124e       0x20 /Applications/microchip/xc32/v1.32/bin/bin/../../lib/gcc/pic32mx/4.5.2/../../../../pic32mx/lib/libpic32.a(default-on-reset.o)
 .debug_pubnames
                0x0000126e       0x24 /Applications/microchip/xc32/v1.32/bin/bin/../../lib/gcc/pic32mx/4.5.2/../../../../pic32mx/lib/libpic32.a(default-on-bootstrap.o)
 .debug_pubnames
                0x00001292       0x28 /Applications/microchip/xc32/v1.32/bin/bin/../../lib/gcc/pic32mx/4.5.2/../../../../pic32mx/lib/libpic32.a(defaultinterrupt.o)
 .debug_pubnames
                0x000012ba       0x1e /Applications/microchip/xc32/v1.32/bin/bin/../../lib/gcc/pic32mx/4.5.2/../../../../pic32mx/lib/libc.a(putchar.o)
 .debug_pubnames
                0x000012d8       0x28 /Applications/microchip/xc32/v1.32/bin/bin/../../lib/gcc/pic32mx/4.5.2/../../../../pic32mx/lib/libc.a(sprintf_cdnopuxX.eo)
 .debug_pubnames
                0x00001300       0x1c /Applications/microchip/xc32/v1.32/bin/bin/../../lib/gcc/pic32mx/4.5.2/../../../../pic32mx/lib/libc.a(_fputc_simple.o)
 .debug_pubnames
                0x0000131c       0x29 /Applications/microchip/xc32/v1.32/bin/bin/../../lib/gcc/pic32mx/4.5.2/../../../../pic32mx/lib/libc.a(doprnt_cdnopuxX.eo)
 .debug_pubnames
                0x00001345       0x1e /Applications/microchip/xc32/v1.32/bin/bin/../../lib/gcc/pic32mx/4.5.2/../../../../pic32mx/lib/libc.a(_flsbuf_simple.o)
 .debug_pubnames
                0x00001363       0x20 /Applications/microchip/xc32/v1.32/bin/bin/../../lib/gcc/pic32mx/4.5.2/libgcc.a(_udivdi3.o)
 .debug_pubnames
                0x00001383       0x20 /Applications/microchip/xc32/v1.32/bin/bin/../../lib/gcc/pic32mx/4.5.2/libgcc.a(_umoddi3.o)

.debug_info     0x00000000    0x116cf
 *(.debug_info .gnu.linkonce.wi.*)
 .debug_info    0x00000000      0xec8 build/EXPLORER_16_PIC32MX270F256D/production/_ext/332309696/port.o
 .debug_info    0x00000ec8       0xc9 build/EXPLORER_16_PIC32MX270F256D/production/_ext/332309696/port_asm.o
 .debug_info    0x00000f91     0x1068 build/EXPLORER_16_PIC32MX270F256D/production/_ext/449926602/queue.o
 .debug_info    0x00001ff9     0x2067 build/EXPLORER_16_PIC32MX270F256D/production/_ext/449926602/tasks.o
 .debug_info    0x00004060      0x46d build/EXPLORER_16_PIC32MX270F256D/production/_ext/449926602/list.o
 .debug_info    0x000044cd      0xd7f build/EXPLORER_16_PIC32MX270F256D/production/_ext/449926602/timers.o
 .debug_info    0x0000524c      0x5b1 build/EXPLORER_16_PIC32MX270F256D/production/_ext/1884096877/heap_4.o
 .debug_info    0x000057fd      0x470 build/EXPLORER_16_PIC32MX270F256D/production/_ext/1163846883/blocktim.o
 .debug_info    0x00005c6d      0x3ce build/EXPLORER_16_PIC32MX270F256D/production/_ext/1163846883/comtest.o
 .debug_info    0x0000603b      0x4e9 build/EXPLORER_16_PIC32MX270F256D/production/_ext/1163846883/semtest.o
 .debug_info    0x00006524      0x498 build/EXPLORER_16_PIC32MX270F256D/production/_ext/1163846883/QPeek.o
 .debug_info    0x000069bc      0xad8 build/EXPLORER_16_PIC32MX270F256D/production/_ext/1163846883/IntQueue.o
 .debug_info    0x00007494      0x624 build/EXPLORER_16_PIC32MX270F256D/production/_ext/1163846883/GenQTest.o
 .debug_info    0x00007ab8      0x28f build/EXPLORER_16_PIC32MX270F256D/production/_ext/1163846883/flash_timer.o
 .debug_info    0x00007d47     0x143d build/EXPLORER_16_PIC32MX270F256D/production/_ext/1472/main.o
 .debug_info    0x00009184       0xae build/EXPLORER_16_PIC32MX270F256D/production/_ext/1472/RegisterTestTasks.o
 .debug_info    0x00009232     0x1218 build/EXPLORER_16_PIC32MX270F256D/production/_ext/1472/lcd.o
 .debug_info    0x0000a44a     0x264a build/EXPLORER_16_PIC32MX270F256D/production/_ext/821501661/serial.o
 .debug_info    0x0000ca94       0xae build/EXPLORER_16_PIC32MX270F256D/production/_ext/821501661/serial_isr.o
 .debug_info    0x0000cb42      0xb21 build/EXPLORER_16_PIC32MX270F256D/production/_ext/1472/timertest.o
 .debug_info    0x0000d663       0xaa build/EXPLORER_16_PIC32MX270F256D/production/_ext/1472/timertest_isr.o
 .debug_info    0x0000d70d      0xe19 build/EXPLORER_16_PIC32MX270F256D/production/_ext/1472/IntQueueTimer.o
 .debug_info    0x0000e526       0xae build/EXPLORER_16_PIC32MX270F256D/production/_ext/1472/IntQueueTimer_isr.o
 .debug_info    0x0000e5d4      0x50d build/EXPLORER_16_PIC32MX270F256D/production/_ext/1472/printf-stdarg.o
 .debug_info    0x0000eae1      0x37c build/EXPLORER_16_PIC32MX270F256D/production/_ext/1472/main_blinky.o
 .debug_info    0x0000ee5d      0x4a0 build/EXPLORER_16_PIC32MX270F256D/production/_ext/1472/main_full.o
 .debug_info    0x0000f2fd      0x47e build/EXPLORER_16_PIC32MX270F256D/production/_ext/1472/ConfigPerformance.o
 .debug_info    0x0000f77b      0x382 build/EXPLORER_16_PIC32MX270F256D/production/_ext/809743516/ParTest_Explorer16.o
 .debug_info    0x0000fafd       0xae /Applications/microchip/xc32/v1.32/bin/bin/../../lib/gcc/pic32mx/4.5.2/../../../../pic32mx/lib/libmchp_peripheral_32MX270F256D.a(int_configure_system_lib.o)
 .debug_info    0x0000fbab       0xb0 /Applications/microchip/xc32/v1.32/bin/bin/../../lib/gcc/pic32mx/4.5.2/../../../../pic32mx/lib/libmchp_peripheral_32MX270F256D.a(int_enable_interrupts_lib.o)
 .debug_info    0x0000fc5b       0xb2 /Applications/microchip/xc32/v1.32/bin/bin/../../lib/gcc/pic32mx/4.5.2/../../../../pic32mx/lib/libmchp_peripheral_32MX270F256D.a(int_disable_interrupts_lib.o)
 .debug_info    0x0000fd0d       0xb2 /Applications/microchip/xc32/v1.32/bin/bin/../../lib/gcc/pic32mx/4.5.2/../../../../pic32mx/lib/libmchp_peripheral_32MX270F256D.a(int_restore_interrupts_lib.o)
 .debug_info    0x0000fdbf      0x192 /Applications/microchip/xc32/v1.32/bin/bin/../../lib/gcc/pic32mx/4.5.2/../../../../pic32mx/lib/libmchp_peripheral_32MX270F256D.a(int_tbl_lib.o)
 .debug_info    0x0000ff51      0x171 /Applications/microchip/xc32/v1.32/bin/bin/../../lib/gcc/pic32mx/4.5.2/../../../../pic32mx/lib/libmchp_peripheral_32MX270F256D.a(uart_lib.o)
 .debug_info    0x000100c2       0xde /Applications/microchip/xc32/v1.32/bin/bin/../../lib/gcc/pic32mx/4.5.2/../../../../pic32mx/lib/libpic32.a(default-bootstrap-exception-handler.o)
 .debug_info    0x000101a0       0xb8 /Applications/microchip/xc32/v1.32/bin/bin/../../lib/gcc/pic32mx/4.5.2/../../../../pic32mx/lib/libpic32.a(default-on-reset.o)
 .debug_info    0x00010258       0xc0 /Applications/microchip/xc32/v1.32/bin/bin/../../lib/gcc/pic32mx/4.5.2/../../../../pic32mx/lib/libpic32.a(default-on-bootstrap.o)
 .debug_info    0x00010318       0xd2 /Applications/microchip/xc32/v1.32/bin/bin/../../lib/gcc/pic32mx/4.5.2/../../../../pic32mx/lib/libpic32.a(defaultinterrupt.o)
 .debug_info    0x000103ea       0xb3 /Applications/microchip/xc32/v1.32/bin/bin/../../lib/gcc/pic32mx/4.5.2/../../../../pic32mx/lib/libc.a(putchar.o)
 .debug_info    0x0001049d       0xbd /Applications/microchip/xc32/v1.32/bin/bin/../../lib/gcc/pic32mx/4.5.2/../../../../pic32mx/lib/libc.a(sprintf_cdnopuxX.eo)
 .debug_info    0x0001055a        0x0 /Applications/microchip/xc32/v1.32/bin/bin/../../lib/gcc/pic32mx/4.5.2/../../../../pic32mx/lib/libc.a(_iob.o)
 .debug_info    0x0001055a       0xaf /Applications/microchip/xc32/v1.32/bin/bin/../../lib/gcc/pic32mx/4.5.2/../../../../pic32mx/lib/libc.a(_fputc_simple.o)
 .debug_info    0x00010609       0xbe /Applications/microchip/xc32/v1.32/bin/bin/../../lib/gcc/pic32mx/4.5.2/../../../../pic32mx/lib/libc.a(doprnt_cdnopuxX.eo)
 .debug_info    0x000106c7       0xb2 /Applications/microchip/xc32/v1.32/bin/bin/../../lib/gcc/pic32mx/4.5.2/../../../../pic32mx/lib/libc.a(_flsbuf_simple.o)
 .debug_info    0x00010779        0x0 /Applications/microchip/xc32/v1.32/bin/bin/../../lib/gcc/pic32mx/4.5.2/../../../../pic32mx/lib/libc.a(ctype.o)
 .debug_info    0x00010779      0x790 /Applications/microchip/xc32/v1.32/bin/bin/../../lib/gcc/pic32mx/4.5.2/libgcc.a(_udivdi3.o)
 .debug_info    0x00010f09      0x7c6 /Applications/microchip/xc32/v1.32/bin/bin/../../lib/gcc/pic32mx/4.5.2/libgcc.a(_umoddi3.o)

.debug_abbrev   0x00000000     0x2750
 *(.debug_abbrev)
 .debug_abbrev  0x00000000      0x288 build/EXPLORER_16_PIC32MX270F256D/production/_ext/332309696/port.o
 .debug_abbrev  0x00000288       0x14 build/EXPLORER_16_PIC32MX270F256D/production/_ext/332309696/port_asm.o
 .debug_abbrev  0x0000029c      0x1b0 build/EXPLORER_16_PIC32MX270F256D/production/_ext/449926602/queue.o
 .debug_abbrev  0x0000044c      0x2a1 build/EXPLORER_16_PIC32MX270F256D/production/_ext/449926602/tasks.o
 .debug_abbrev  0x000006ed       0xf8 build/EXPLORER_16_PIC32MX270F256D/production/_ext/449926602/list.o
 .debug_abbrev  0x000007e5      0x258 build/EXPLORER_16_PIC32MX270F256D/production/_ext/449926602/timers.o
 .debug_abbrev  0x00000a3d      0x18c build/EXPLORER_16_PIC32MX270F256D/production/_ext/1884096877/heap_4.o
 .debug_abbrev  0x00000bc9      0x10a build/EXPLORER_16_PIC32MX270F256D/production/_ext/1163846883/blocktim.o
 .debug_abbrev  0x00000cd3       0xed build/EXPLORER_16_PIC32MX270F256D/production/_ext/1163846883/comtest.o
 .debug_abbrev  0x00000dc0      0x140 build/EXPLORER_16_PIC32MX270F256D/production/_ext/1163846883/semtest.o
 .debug_abbrev  0x00000f00      0x12e build/EXPLORER_16_PIC32MX270F256D/production/_ext/1163846883/QPeek.o
 .debug_abbrev  0x0000102e      0x151 build/EXPLORER_16_PIC32MX270F256D/production/_ext/1163846883/IntQueue.o
 .debug_abbrev  0x0000117f      0x161 build/EXPLORER_16_PIC32MX270F256D/production/_ext/1163846883/GenQTest.o
 .debug_abbrev  0x000012e0       0x88 build/EXPLORER_16_PIC32MX270F256D/production/_ext/1163846883/flash_timer.o
 .debug_abbrev  0x00001368      0x301 build/EXPLORER_16_PIC32MX270F256D/production/_ext/1472/main.o
 .debug_abbrev  0x00001669       0x14 build/EXPLORER_16_PIC32MX270F256D/production/_ext/1472/RegisterTestTasks.o
 .debug_abbrev  0x0000167d      0x260 build/EXPLORER_16_PIC32MX270F256D/production/_ext/1472/lcd.o
 .debug_abbrev  0x000018dd      0x289 build/EXPLORER_16_PIC32MX270F256D/production/_ext/821501661/serial.o
 .debug_abbrev  0x00001b66       0x14 build/EXPLORER_16_PIC32MX270F256D/production/_ext/821501661/serial_isr.o
 .debug_abbrev  0x00001b7a      0x125 build/EXPLORER_16_PIC32MX270F256D/production/_ext/1472/timertest.o
 .debug_abbrev  0x00001c9f       0x14 build/EXPLORER_16_PIC32MX270F256D/production/_ext/1472/timertest_isr.o
 .debug_abbrev  0x00001cb3       0xdf build/EXPLORER_16_PIC32MX270F256D/production/_ext/1472/IntQueueTimer.o
 .debug_abbrev  0x00001d92       0x14 build/EXPLORER_16_PIC32MX270F256D/production/_ext/1472/IntQueueTimer_isr.o
 .debug_abbrev  0x00001da6      0x142 build/EXPLORER_16_PIC32MX270F256D/production/_ext/1472/printf-stdarg.o
 .debug_abbrev  0x00001ee8       0xd4 build/EXPLORER_16_PIC32MX270F256D/production/_ext/1472/main_blinky.o
 .debug_abbrev  0x00001fbc      0x126 build/EXPLORER_16_PIC32MX270F256D/production/_ext/1472/main_full.o
 .debug_abbrev  0x000020e2      0x106 build/EXPLORER_16_PIC32MX270F256D/production/_ext/1472/ConfigPerformance.o
 .debug_abbrev  0x000021e8       0xd5 build/EXPLORER_16_PIC32MX270F256D/production/_ext/809743516/ParTest_Explorer16.o
 .debug_abbrev  0x000022bd       0x23 /Applications/microchip/xc32/v1.32/bin/bin/../../lib/gcc/pic32mx/4.5.2/../../../../pic32mx/lib/libmchp_peripheral_32MX270F256D.a(int_configure_system_lib.o)
 .debug_abbrev  0x000022e0       0x23 /Applications/microchip/xc32/v1.32/bin/bin/../../lib/gcc/pic32mx/4.5.2/../../../../pic32mx/lib/libmchp_peripheral_32MX270F256D.a(int_enable_interrupts_lib.o)
 .debug_abbrev  0x00002303       0x23 /Applications/microchip/xc32/v1.32/bin/bin/../../lib/gcc/pic32mx/4.5.2/../../../../pic32mx/lib/libmchp_peripheral_32MX270F256D.a(int_disable_interrupts_lib.o)
 .debug_abbrev  0x00002326       0x23 /Applications/microchip/xc32/v1.32/bin/bin/../../lib/gcc/pic32mx/4.5.2/../../../../pic32mx/lib/libmchp_peripheral_32MX270F256D.a(int_restore_interrupts_lib.o)
 .debug_abbrev  0x00002349       0x23 /Applications/microchip/xc32/v1.32/bin/bin/../../lib/gcc/pic32mx/4.5.2/../../../../pic32mx/lib/libmchp_peripheral_32MX270F256D.a(int_tbl_lib.o)
 .debug_abbrev  0x0000236c       0x36 /Applications/microchip/xc32/v1.32/bin/bin/../../lib/gcc/pic32mx/4.5.2/../../../../pic32mx/lib/libmchp_peripheral_32MX270F256D.a(uart_lib.o)
 .debug_abbrev  0x000023a2       0x23 /Applications/microchip/xc32/v1.32/bin/bin/../../lib/gcc/pic32mx/4.5.2/../../../../pic32mx/lib/libpic32.a(default-bootstrap-exception-handler.o)
 .debug_abbrev  0x000023c5       0x23 /Applications/microchip/xc32/v1.32/bin/bin/../../lib/gcc/pic32mx/4.5.2/../../../../pic32mx/lib/libpic32.a(default-on-reset.o)
 .debug_abbrev  0x000023e8       0x23 /Applications/microchip/xc32/v1.32/bin/bin/../../lib/gcc/pic32mx/4.5.2/../../../../pic32mx/lib/libpic32.a(default-on-bootstrap.o)
 .debug_abbrev  0x0000240b       0x23 /Applications/microchip/xc32/v1.32/bin/bin/../../lib/gcc/pic32mx/4.5.2/../../../../pic32mx/lib/libpic32.a(defaultinterrupt.o)
 .debug_abbrev  0x0000242e       0x23 /Applications/microchip/xc32/v1.32/bin/bin/../../lib/gcc/pic32mx/4.5.2/../../../../pic32mx/lib/libc.a(putchar.o)
 .debug_abbrev  0x00002451       0x23 /Applications/microchip/xc32/v1.32/bin/bin/../../lib/gcc/pic32mx/4.5.2/../../../../pic32mx/lib/libc.a(sprintf_cdnopuxX.eo)
 .debug_abbrev  0x00002474        0x1 /Applications/microchip/xc32/v1.32/bin/bin/../../lib/gcc/pic32mx/4.5.2/../../../../pic32mx/lib/libc.a(_iob.o)
 .debug_abbrev  0x00002475       0x23 /Applications/microchip/xc32/v1.32/bin/bin/../../lib/gcc/pic32mx/4.5.2/../../../../pic32mx/lib/libc.a(_fputc_simple.o)
 .debug_abbrev  0x00002498       0x23 /Applications/microchip/xc32/v1.32/bin/bin/../../lib/gcc/pic32mx/4.5.2/../../../../pic32mx/lib/libc.a(doprnt_cdnopuxX.eo)
 .debug_abbrev  0x000024bb       0x23 /Applications/microchip/xc32/v1.32/bin/bin/../../lib/gcc/pic32mx/4.5.2/../../../../pic32mx/lib/libc.a(_flsbuf_simple.o)
 .debug_abbrev  0x000024de        0x1 /Applications/microchip/xc32/v1.32/bin/bin/../../lib/gcc/pic32mx/4.5.2/../../../../pic32mx/lib/libc.a(ctype.o)
 .debug_abbrev  0x000024df      0x132 /Applications/microchip/xc32/v1.32/bin/bin/../../lib/gcc/pic32mx/4.5.2/libgcc.a(_udivdi3.o)
 .debug_abbrev  0x00002611      0x13f /Applications/microchip/xc32/v1.32/bin/bin/../../lib/gcc/pic32mx/4.5.2/libgcc.a(_umoddi3.o)

.debug_line     0x00000000     0x46c7
 *(.debug_line)
 .debug_line    0x00000000      0x1fa build/EXPLORER_16_PIC32MX270F256D/production/_ext/332309696/port.o
 .debug_line    0x000001fa       0xe5 build/EXPLORER_16_PIC32MX270F256D/production/_ext/332309696/port_asm.o
 .debug_line    0x000002df      0x461 build/EXPLORER_16_PIC32MX270F256D/production/_ext/449926602/queue.o
 .debug_line    0x00000740      0x6ad build/EXPLORER_16_PIC32MX270F256D/production/_ext/449926602/tasks.o
 .debug_line    0x00000ded      0x1ea build/EXPLORER_16_PIC32MX270F256D/production/_ext/449926602/list.o
 .debug_line    0x00000fd7      0x30b build/EXPLORER_16_PIC32MX270F256D/production/_ext/449926602/timers.o
 .debug_line    0x000012e2      0x1a2 build/EXPLORER_16_PIC32MX270F256D/production/_ext/1884096877/heap_4.o
 .debug_line    0x00001484      0x285 build/EXPLORER_16_PIC32MX270F256D/production/_ext/1163846883/blocktim.o
 .debug_line    0x00001709      0x29c build/EXPLORER_16_PIC32MX270F256D/production/_ext/1163846883/comtest.o
 .debug_line    0x000019a5      0x25e build/EXPLORER_16_PIC32MX270F256D/production/_ext/1163846883/semtest.o
 .debug_line    0x00001c03      0x27b build/EXPLORER_16_PIC32MX270F256D/production/_ext/1163846883/QPeek.o
 .debug_line    0x00001e7e      0x338 build/EXPLORER_16_PIC32MX270F256D/production/_ext/1163846883/IntQueue.o
 .debug_line    0x000021b6      0x2fe build/EXPLORER_16_PIC32MX270F256D/production/_ext/1163846883/GenQTest.o
 .debug_line    0x000024b4      0x1eb build/EXPLORER_16_PIC32MX270F256D/production/_ext/1163846883/flash_timer.o
 .debug_line    0x0000269f      0x28e build/EXPLORER_16_PIC32MX270F256D/production/_ext/1472/main.o
 .debug_line    0x0000292d      0x1c6 build/EXPLORER_16_PIC32MX270F256D/production/_ext/1472/RegisterTestTasks.o
 .debug_line    0x00002af3      0x333 build/EXPLORER_16_PIC32MX270F256D/production/_ext/1472/lcd.o
 .debug_line    0x00002e26      0x3ca build/EXPLORER_16_PIC32MX270F256D/production/_ext/821501661/serial.o
 .debug_line    0x000031f0       0x4d build/EXPLORER_16_PIC32MX270F256D/production/_ext/821501661/serial_isr.o
 .debug_line    0x0000323d       0xfe build/EXPLORER_16_PIC32MX270F256D/production/_ext/1472/timertest.o
 .debug_line    0x0000333b       0x4a build/EXPLORER_16_PIC32MX270F256D/production/_ext/1472/timertest_isr.o
 .debug_line    0x00003385      0x154 build/EXPLORER_16_PIC32MX270F256D/production/_ext/1472/IntQueueTimer.o
 .debug_line    0x000034d9       0x5a build/EXPLORER_16_PIC32MX270F256D/production/_ext/1472/IntQueueTimer_isr.o
 .debug_line    0x00003533      0x181 build/EXPLORER_16_PIC32MX270F256D/production/_ext/1472/printf-stdarg.o
 .debug_line    0x000036b4      0x20f build/EXPLORER_16_PIC32MX270F256D/production/_ext/1472/main_blinky.o
 .debug_line    0x000038c3      0x241 build/EXPLORER_16_PIC32MX270F256D/production/_ext/1472/main_full.o
 .debug_line    0x00003b04      0x106 build/EXPLORER_16_PIC32MX270F256D/production/_ext/1472/ConfigPerformance.o
 .debug_line    0x00003c0a      0x107 build/EXPLORER_16_PIC32MX270F256D/production/_ext/809743516/ParTest_Explorer16.o
 .debug_line    0x00003d11       0x71 /Applications/microchip/xc32/v1.32/bin/bin/../../lib/gcc/pic32mx/4.5.2/../../../../pic32mx/lib/libmchp_peripheral_32MX270F256D.a(int_configure_system_lib.o)
 .debug_line    0x00003d82       0x72 /Applications/microchip/xc32/v1.32/bin/bin/../../lib/gcc/pic32mx/4.5.2/../../../../pic32mx/lib/libmchp_peripheral_32MX270F256D.a(int_enable_interrupts_lib.o)
 .debug_line    0x00003df4       0x73 /Applications/microchip/xc32/v1.32/bin/bin/../../lib/gcc/pic32mx/4.5.2/../../../../pic32mx/lib/libmchp_peripheral_32MX270F256D.a(int_disable_interrupts_lib.o)
 .debug_line    0x00003e67       0x73 /Applications/microchip/xc32/v1.32/bin/bin/../../lib/gcc/pic32mx/4.5.2/../../../../pic32mx/lib/libmchp_peripheral_32MX270F256D.a(int_restore_interrupts_lib.o)
 .debug_line    0x00003eda       0x64 /Applications/microchip/xc32/v1.32/bin/bin/../../lib/gcc/pic32mx/4.5.2/../../../../pic32mx/lib/libmchp_peripheral_32MX270F256D.a(int_tbl_lib.o)
 .debug_line    0x00003f3e       0x62 /Applications/microchip/xc32/v1.32/bin/bin/../../lib/gcc/pic32mx/4.5.2/../../../../pic32mx/lib/libmchp_peripheral_32MX270F256D.a(uart_lib.o)
 .debug_line    0x00003fa0       0x97 /Applications/microchip/xc32/v1.32/bin/bin/../../lib/gcc/pic32mx/4.5.2/../../../../pic32mx/lib/libpic32.a(default-bootstrap-exception-handler.o)
 .debug_line    0x00004037       0x84 /Applications/microchip/xc32/v1.32/bin/bin/../../lib/gcc/pic32mx/4.5.2/../../../../pic32mx/lib/libpic32.a(default-on-reset.o)
 .debug_line    0x000040bb       0x88 /Applications/microchip/xc32/v1.32/bin/bin/../../lib/gcc/pic32mx/4.5.2/../../../../pic32mx/lib/libpic32.a(default-on-bootstrap.o)
 .debug_line    0x00004143       0x96 /Applications/microchip/xc32/v1.32/bin/bin/../../lib/gcc/pic32mx/4.5.2/../../../../pic32mx/lib/libpic32.a(defaultinterrupt.o)
 .debug_line    0x000041d9       0x71 /Applications/microchip/xc32/v1.32/bin/bin/../../lib/gcc/pic32mx/4.5.2/../../../../pic32mx/lib/libc.a(putchar.o)
 .debug_line    0x0000424a       0x71 /Applications/microchip/xc32/v1.32/bin/bin/../../lib/gcc/pic32mx/4.5.2/../../../../pic32mx/lib/libc.a(sprintf_cdnopuxX.eo)
 .debug_line    0x000042bb        0x0 /Applications/microchip/xc32/v1.32/bin/bin/../../lib/gcc/pic32mx/4.5.2/../../../../pic32mx/lib/libc.a(_iob.o)
 .debug_line    0x000042bb       0x6f /Applications/microchip/xc32/v1.32/bin/bin/../../lib/gcc/pic32mx/4.5.2/../../../../pic32mx/lib/libc.a(_fputc_simple.o)
 .debug_line    0x0000432a       0x70 /Applications/microchip/xc32/v1.32/bin/bin/../../lib/gcc/pic32mx/4.5.2/../../../../pic32mx/lib/libc.a(doprnt_cdnopuxX.eo)
 .debug_line    0x0000439a       0x70 /Applications/microchip/xc32/v1.32/bin/bin/../../lib/gcc/pic32mx/4.5.2/../../../../pic32mx/lib/libc.a(_flsbuf_simple.o)
 .debug_line    0x0000440a        0x0 /Applications/microchip/xc32/v1.32/bin/bin/../../lib/gcc/pic32mx/4.5.2/../../../../pic32mx/lib/libc.a(ctype.o)
 .debug_line    0x0000440a      0x168 /Applications/microchip/xc32/v1.32/bin/bin/../../lib/gcc/pic32mx/4.5.2/libgcc.a(_udivdi3.o)
 .debug_line    0x00004572      0x155 /Applications/microchip/xc32/v1.32/bin/bin/../../lib/gcc/pic32mx/4.5.2/libgcc.a(_umoddi3.o)

.debug_frame    0x00000000     0x15f0
 *(.debug_frame)
 .debug_frame   0x00000000       0xb0 build/EXPLORER_16_PIC32MX270F256D/production/_ext/332309696/port.o
 .debug_frame   0x000000b0      0x288 build/EXPLORER_16_PIC32MX270F256D/production/_ext/449926602/queue.o
 .debug_frame   0x00000338      0x494 build/EXPLORER_16_PIC32MX270F256D/production/_ext/449926602/tasks.o
 .debug_frame   0x000007cc       0x60 build/EXPLORER_16_PIC32MX270F256D/production/_ext/449926602/list.o
 .debug_frame   0x0000082c      0x134 build/EXPLORER_16_PIC32MX270F256D/production/_ext/449926602/timers.o
 .debug_frame   0x00000960       0x8c build/EXPLORER_16_PIC32MX270F256D/production/_ext/1884096877/heap_4.o
 .debug_frame   0x000009ec       0x74 build/EXPLORER_16_PIC32MX270F256D/production/_ext/1163846883/blocktim.o
 .debug_frame   0x00000a60       0x78 build/EXPLORER_16_PIC32MX270F256D/production/_ext/1163846883/comtest.o
 .debug_frame   0x00000ad8       0x60 build/EXPLORER_16_PIC32MX270F256D/production/_ext/1163846883/semtest.o
 .debug_frame   0x00000b38       0xb0 build/EXPLORER_16_PIC32MX270F256D/production/_ext/1163846883/QPeek.o
 .debug_frame   0x00000be8      0x150 build/EXPLORER_16_PIC32MX270F256D/production/_ext/1163846883/IntQueue.o
 .debug_frame   0x00000d38       0xb0 build/EXPLORER_16_PIC32MX270F256D/production/_ext/1163846883/GenQTest.o
 .debug_frame   0x00000de8       0x4c build/EXPLORER_16_PIC32MX270F256D/production/_ext/1163846883/flash_timer.o
 .debug_frame   0x00000e34       0x8c build/EXPLORER_16_PIC32MX270F256D/production/_ext/1472/main.o
 .debug_frame   0x00000ec0       0x80 build/EXPLORER_16_PIC32MX270F256D/production/_ext/1472/lcd.o
 .debug_frame   0x00000f40       0x88 build/EXPLORER_16_PIC32MX270F256D/production/_ext/821501661/serial.o
 .debug_frame   0x00000fc8       0x30 build/EXPLORER_16_PIC32MX270F256D/production/_ext/1472/timertest.o
 .debug_frame   0x00000ff8       0x50 build/EXPLORER_16_PIC32MX270F256D/production/_ext/1472/IntQueueTimer.o
 .debug_frame   0x00001048       0xe8 build/EXPLORER_16_PIC32MX270F256D/production/_ext/1472/printf-stdarg.o
 .debug_frame   0x00001130       0x70 build/EXPLORER_16_PIC32MX270F256D/production/_ext/1472/main_blinky.o
 .debug_frame   0x000011a0       0x88 build/EXPLORER_16_PIC32MX270F256D/production/_ext/1472/main_full.o
 .debug_frame   0x00001228       0x30 build/EXPLORER_16_PIC32MX270F256D/production/_ext/1472/ConfigPerformance.o
 .debug_frame   0x00001258       0x40 build/EXPLORER_16_PIC32MX270F256D/production/_ext/809743516/ParTest_Explorer16.o
 .debug_frame   0x00001298       0x20 /Applications/microchip/xc32/v1.32/bin/bin/../../lib/gcc/pic32mx/4.5.2/../../../../pic32mx/lib/libmchp_peripheral_32MX270F256D.a(int_configure_system_lib.o)
 .debug_frame   0x000012b8       0x20 /Applications/microchip/xc32/v1.32/bin/bin/../../lib/gcc/pic32mx/4.5.2/../../../../pic32mx/lib/libmchp_peripheral_32MX270F256D.a(int_enable_interrupts_lib.o)
 .debug_frame   0x000012d8       0x20 /Applications/microchip/xc32/v1.32/bin/bin/../../lib/gcc/pic32mx/4.5.2/../../../../pic32mx/lib/libmchp_peripheral_32MX270F256D.a(int_disable_interrupts_lib.o)
 .debug_frame   0x000012f8       0x20 /Applications/microchip/xc32/v1.32/bin/bin/../../lib/gcc/pic32mx/4.5.2/../../../../pic32mx/lib/libmchp_peripheral_32MX270F256D.a(int_restore_interrupts_lib.o)
 .debug_frame   0x00001318       0xa0 /Applications/microchip/xc32/v1.32/bin/bin/../../lib/gcc/pic32mx/4.5.2/../../../../pic32mx/lib/libmchp_peripheral_32MX270F256D.a(int_tbl_lib.o)
 .debug_frame   0x000013b8       0x90 /Applications/microchip/xc32/v1.32/bin/bin/../../lib/gcc/pic32mx/4.5.2/../../../../pic32mx/lib/libmchp_peripheral_32MX270F256D.a(uart_lib.o)
 .debug_frame   0x00001448       0x28 /Applications/microchip/xc32/v1.32/bin/bin/../../lib/gcc/pic32mx/4.5.2/../../../../pic32mx/lib/libpic32.a(default-bootstrap-exception-handler.o)
 .debug_frame   0x00001470       0x20 /Applications/microchip/xc32/v1.32/bin/bin/../../lib/gcc/pic32mx/4.5.2/../../../../pic32mx/lib/libpic32.a(default-on-reset.o)
 .debug_frame   0x00001490       0x20 /Applications/microchip/xc32/v1.32/bin/bin/../../lib/gcc/pic32mx/4.5.2/../../../../pic32mx/lib/libpic32.a(default-on-bootstrap.o)
 .debug_frame   0x000014b0       0x20 /Applications/microchip/xc32/v1.32/bin/bin/../../lib/gcc/pic32mx/4.5.2/../../../../pic32mx/lib/libpic32.a(defaultinterrupt.o)
 .debug_frame   0x000014d0       0x28 /Applications/microchip/xc32/v1.32/bin/bin/../../lib/gcc/pic32mx/4.5.2/../../../../pic32mx/lib/libc.a(putchar.o)
 .debug_frame   0x000014f8       0x2c /Applications/microchip/xc32/v1.32/bin/bin/../../lib/gcc/pic32mx/4.5.2/../../../../pic32mx/lib/libc.a(sprintf_cdnopuxX.eo)
 .debug_frame   0x00001524       0x2c /Applications/microchip/xc32/v1.32/bin/bin/../../lib/gcc/pic32mx/4.5.2/../../../../pic32mx/lib/libc.a(_fputc_simple.o)
 .debug_frame   0x00001550       0x38 /Applications/microchip/xc32/v1.32/bin/bin/../../lib/gcc/pic32mx/4.5.2/../../../../pic32mx/lib/libc.a(doprnt_cdnopuxX.eo)
 .debug_frame   0x00001588       0x28 /Applications/microchip/xc32/v1.32/bin/bin/../../lib/gcc/pic32mx/4.5.2/../../../../pic32mx/lib/libc.a(_flsbuf_simple.o)
 .debug_frame   0x000015b0       0x20 /Applications/microchip/xc32/v1.32/bin/bin/../../lib/gcc/pic32mx/4.5.2/libgcc.a(_udivdi3.o)
 .debug_frame   0x000015d0       0x20 /Applications/microchip/xc32/v1.32/bin/bin/../../lib/gcc/pic32mx/4.5.2/libgcc.a(_umoddi3.o)

.debug_str      0x00000000      0xa70
 *(.debug_str)
 .debug_str     0x00000000       0x7d build/EXPLORER_16_PIC32MX270F256D/production/_ext/332309696/port.o
 .debug_str     0x0000007d       0xf1 build/EXPLORER_16_PIC32MX270F256D/production/_ext/449926602/queue.o
 .debug_str     0x0000016e      0x1b1 build/EXPLORER_16_PIC32MX270F256D/production/_ext/449926602/tasks.o
 .debug_str     0x0000031f       0x2b build/EXPLORER_16_PIC32MX270F256D/production/_ext/449926602/list.o
 .debug_str     0x0000034a       0xbf build/EXPLORER_16_PIC32MX270F256D/production/_ext/449926602/timers.o
 .debug_str     0x00000409        0x0 build/EXPLORER_16_PIC32MX270F256D/production/_ext/1884096877/heap_4.o
 .debug_str     0x00000409       0x2c build/EXPLORER_16_PIC32MX270F256D/production/_ext/1163846883/blocktim.o
 .debug_str     0x00000435        0xd build/EXPLORER_16_PIC32MX270F256D/production/_ext/1163846883/comtest.o
 .debug_str     0x00000442       0x1d build/EXPLORER_16_PIC32MX270F256D/production/_ext/1163846883/semtest.o
 .debug_str     0x0000045f       0x57 build/EXPLORER_16_PIC32MX270F256D/production/_ext/1163846883/QPeek.o
 .debug_str     0x000004b6      0x142 build/EXPLORER_16_PIC32MX270F256D/production/_ext/1163846883/IntQueue.o
 .debug_str     0x000005f8       0x20 build/EXPLORER_16_PIC32MX270F256D/production/_ext/1163846883/GenQTest.o
 .debug_str     0x00000618        0x0 build/EXPLORER_16_PIC32MX270F256D/production/_ext/1163846883/flash_timer.o
 .debug_str     0x00000618      0x10b build/EXPLORER_16_PIC32MX270F256D/production/_ext/1472/main.o
 .debug_str     0x00000723       0xec build/EXPLORER_16_PIC32MX270F256D/production/_ext/1472/lcd.o
 .debug_str     0x0000080f      0x114 build/EXPLORER_16_PIC32MX270F256D/production/_ext/821501661/serial.o
 .debug_str     0x00000923       0x44 build/EXPLORER_16_PIC32MX270F256D/production/_ext/1472/timertest.o
 .debug_str     0x00000967       0x38 build/EXPLORER_16_PIC32MX270F256D/production/_ext/1472/IntQueueTimer.o
 .debug_str     0x0000099f        0x7 build/EXPLORER_16_PIC32MX270F256D/production/_ext/1472/printf-stdarg.o
 .debug_str     0x000009a6        0xd build/EXPLORER_16_PIC32MX270F256D/production/_ext/1472/main_blinky.o
 .debug_str     0x000009b3       0x55 build/EXPLORER_16_PIC32MX270F256D/production/_ext/1472/main_full.o
 .debug_str     0x00000a08       0x39 build/EXPLORER_16_PIC32MX270F256D/production/_ext/1472/ConfigPerformance.o
 .debug_str     0x00000a41       0x2f build/EXPLORER_16_PIC32MX270F256D/production/_ext/809743516/ParTest_Explorer16.o
 .debug_str     0x00000a70        0x0 /Applications/microchip/xc32/v1.32/bin/bin/../../lib/gcc/pic32mx/4.5.2/../../../../pic32mx/lib/libmchp_peripheral_32MX270F256D.a(int_configure_system_lib.o)
 .debug_str     0x00000a70        0x0 /Applications/microchip/xc32/v1.32/bin/bin/../../lib/gcc/pic32mx/4.5.2/../../../../pic32mx/lib/libmchp_peripheral_32MX270F256D.a(int_enable_interrupts_lib.o)
 .debug_str     0x00000a70        0x0 /Applications/microchip/xc32/v1.32/bin/bin/../../lib/gcc/pic32mx/4.5.2/../../../../pic32mx/lib/libmchp_peripheral_32MX270F256D.a(int_disable_interrupts_lib.o)
 .debug_str     0x00000a70        0x0 /Applications/microchip/xc32/v1.32/bin/bin/../../lib/gcc/pic32mx/4.5.2/../../../../pic32mx/lib/libmchp_peripheral_32MX270F256D.a(int_restore_interrupts_lib.o)
 .debug_str     0x00000a70        0x0 /Applications/microchip/xc32/v1.32/bin/bin/../../lib/gcc/pic32mx/4.5.2/../../../../pic32mx/lib/libmchp_peripheral_32MX270F256D.a(int_tbl_lib.o)
 .debug_str     0x00000a70        0x0 /Applications/microchip/xc32/v1.32/bin/bin/../../lib/gcc/pic32mx/4.5.2/../../../../pic32mx/lib/libmchp_peripheral_32MX270F256D.a(uart_lib.o)
 .debug_str     0x00000a70        0x0 /Applications/microchip/xc32/v1.32/bin/bin/../../lib/gcc/pic32mx/4.5.2/../../../../pic32mx/lib/libpic32.a(default-bootstrap-exception-handler.o)
 .debug_str     0x00000a70        0x0 /Applications/microchip/xc32/v1.32/bin/bin/../../lib/gcc/pic32mx/4.5.2/../../../../pic32mx/lib/libpic32.a(default-on-reset.o)
 .debug_str     0x00000a70        0x0 /Applications/microchip/xc32/v1.32/bin/bin/../../lib/gcc/pic32mx/4.5.2/../../../../pic32mx/lib/libpic32.a(default-on-bootstrap.o)
 .debug_str     0x00000a70        0x0 /Applications/microchip/xc32/v1.32/bin/bin/../../lib/gcc/pic32mx/4.5.2/../../../../pic32mx/lib/libpic32.a(defaultinterrupt.o)
 .debug_str     0x00000a70        0x0 /Applications/microchip/xc32/v1.32/bin/bin/../../lib/gcc/pic32mx/4.5.2/../../../../pic32mx/lib/libc.a(putchar.o)
 .debug_str     0x00000a70        0x0 /Applications/microchip/xc32/v1.32/bin/bin/../../lib/gcc/pic32mx/4.5.2/../../../../pic32mx/lib/libc.a(sprintf_cdnopuxX.eo)
 .debug_str     0x00000a70        0x0 /Applications/microchip/xc32/v1.32/bin/bin/../../lib/gcc/pic32mx/4.5.2/../../../../pic32mx/lib/libc.a(_iob.o)
 .debug_str     0x00000a70        0x0 /Applications/microchip/xc32/v1.32/bin/bin/../../lib/gcc/pic32mx/4.5.2/../../../../pic32mx/lib/libc.a(_fputc_simple.o)
 .debug_str     0x00000a70        0x0 /Applications/microchip/xc32/v1.32/bin/bin/../../lib/gcc/pic32mx/4.5.2/../../../../pic32mx/lib/libc.a(doprnt_cdnopuxX.eo)
 .debug_str     0x00000a70        0x0 /Applications/microchip/xc32/v1.32/bin/bin/../../lib/gcc/pic32mx/4.5.2/../../../../pic32mx/lib/libc.a(_flsbuf_simple.o)
 .debug_str     0x00000a70        0x0 /Applications/microchip/xc32/v1.32/bin/bin/../../lib/gcc/pic32mx/4.5.2/../../../../pic32mx/lib/libc.a(ctype.o)
 .debug_str     0x00000a70        0x0 /Applications/microchip/xc32/v1.32/bin/bin/../../lib/gcc/pic32mx/4.5.2/libgcc.a(_udivdi3.o)
 .debug_str     0x00000a70        0x0 /Applications/microchip/xc32/v1.32/bin/bin/../../lib/gcc/pic32mx/4.5.2/libgcc.a(_umoddi3.o)

.debug_loc      0x00000000     0x46bb
 *(.debug_loc)
 .debug_loc     0x00000000       0x39 build/EXPLORER_16_PIC32MX270F256D/production/_ext/332309696/port.o
 .debug_loc     0x00000039      0x9f2 build/EXPLORER_16_PIC32MX270F256D/production/_ext/449926602/queue.o
 .debug_loc     0x00000a2b      0xed1 build/EXPLORER_16_PIC32MX270F256D/production/_ext/449926602/tasks.o
 .debug_loc     0x000018fc       0x3d build/EXPLORER_16_PIC32MX270F256D/production/_ext/449926602/list.o
 .debug_loc     0x00001939      0x539 build/EXPLORER_16_PIC32MX270F256D/production/_ext/449926602/timers.o
 .debug_loc     0x00001e72      0x213 build/EXPLORER_16_PIC32MX270F256D/production/_ext/1884096877/heap_4.o
 .debug_loc     0x00002085      0x106 build/EXPLORER_16_PIC32MX270F256D/production/_ext/1163846883/blocktim.o
 .debug_loc     0x0000218b      0x179 build/EXPLORER_16_PIC32MX270F256D/production/_ext/1163846883/comtest.o
 .debug_loc     0x00002304      0x155 build/EXPLORER_16_PIC32MX270F256D/production/_ext/1163846883/semtest.o
 .debug_loc     0x00002459      0x10e build/EXPLORER_16_PIC32MX270F256D/production/_ext/1163846883/QPeek.o
 .debug_loc     0x00002567      0x3c3 build/EXPLORER_16_PIC32MX270F256D/production/_ext/1163846883/IntQueue.o
 .debug_loc     0x0000292a      0x15f build/EXPLORER_16_PIC32MX270F256D/production/_ext/1163846883/GenQTest.o
 .debug_loc     0x00002a89       0x62 build/EXPLORER_16_PIC32MX270F256D/production/_ext/1163846883/flash_timer.o
 .debug_loc     0x00002aeb       0x39 build/EXPLORER_16_PIC32MX270F256D/production/_ext/1472/main.o
 .debug_loc     0x00002b24       0x93 build/EXPLORER_16_PIC32MX270F256D/production/_ext/1472/lcd.o
 .debug_loc     0x00002bb7      0x10c build/EXPLORER_16_PIC32MX270F256D/production/_ext/821501661/serial.o
 .debug_loc     0x00002cc3       0x22 build/EXPLORER_16_PIC32MX270F256D/production/_ext/1472/timertest.o
 .debug_loc     0x00002ce5       0x26 build/EXPLORER_16_PIC32MX270F256D/production/_ext/1472/IntQueueTimer.o
 .debug_loc     0x00002d0b      0x537 build/EXPLORER_16_PIC32MX270F256D/production/_ext/1472/printf-stdarg.o
 .debug_loc     0x00003242       0x57 build/EXPLORER_16_PIC32MX270F256D/production/_ext/1472/main_blinky.o
 .debug_loc     0x00003299       0x8b build/EXPLORER_16_PIC32MX270F256D/production/_ext/1472/main_full.o
 .debug_loc     0x00003324       0x3f build/EXPLORER_16_PIC32MX270F256D/production/_ext/1472/ConfigPerformance.o
 .debug_loc     0x00003363      0x9c3 /Applications/microchip/xc32/v1.32/bin/bin/../../lib/gcc/pic32mx/4.5.2/libgcc.a(_udivdi3.o)
 .debug_loc     0x00003d26      0x995 /Applications/microchip/xc32/v1.32/bin/bin/../../lib/gcc/pic32mx/4.5.2/libgcc.a(_umoddi3.o)

.debug_macinfo
 *(.debug_macinfo)

.debug_weaknames
 *(.debug_weaknames)

.debug_funcnames
 *(.debug_funcnames)

.debug_typenames
 *(.debug_typenames)

.debug_varnames
 *(.debug_varnames)

.debug_pubtypes
                0x00000000     0x1065
 *(.debug_pubtypes)
 .debug_pubtypes
                0x00000000       0xc5 build/EXPLORER_16_PIC32MX270F256D/production/_ext/332309696/port.o
 .debug_pubtypes
                0x000000c5      0x128 build/EXPLORER_16_PIC32MX270F256D/production/_ext/449926602/queue.o
 .debug_pubtypes
                0x000001ed      0x1a6 build/EXPLORER_16_PIC32MX270F256D/production/_ext/449926602/tasks.o
 .debug_pubtypes
                0x00000393       0x9a build/EXPLORER_16_PIC32MX270F256D/production/_ext/449926602/list.o
 .debug_pubtypes
                0x0000042d      0x18e build/EXPLORER_16_PIC32MX270F256D/production/_ext/449926602/timers.o
 .debug_pubtypes
                0x000005bb       0x5b build/EXPLORER_16_PIC32MX270F256D/production/_ext/1884096877/heap_4.o
 .debug_pubtypes
                0x00000616       0x80 build/EXPLORER_16_PIC32MX270F256D/production/_ext/1163846883/blocktim.o
 .debug_pubtypes
                0x00000696       0x73 build/EXPLORER_16_PIC32MX270F256D/production/_ext/1163846883/comtest.o
 .debug_pubtypes
                0x00000709       0xc8 build/EXPLORER_16_PIC32MX270F256D/production/_ext/1163846883/semtest.o
 .debug_pubtypes
                0x000007d1       0x80 build/EXPLORER_16_PIC32MX270F256D/production/_ext/1163846883/QPeek.o
 .debug_pubtypes
                0x00000851       0x80 build/EXPLORER_16_PIC32MX270F256D/production/_ext/1163846883/IntQueue.o
 .debug_pubtypes
                0x000008d1       0x96 build/EXPLORER_16_PIC32MX270F256D/production/_ext/1163846883/GenQTest.o
 .debug_pubtypes
                0x00000967       0x61 build/EXPLORER_16_PIC32MX270F256D/production/_ext/1163846883/flash_timer.o
 .debug_pubtypes
                0x000009c8       0xf0 build/EXPLORER_16_PIC32MX270F256D/production/_ext/1472/main.o
 .debug_pubtypes
                0x00000ab8      0x12a build/EXPLORER_16_PIC32MX270F256D/production/_ext/1472/lcd.o
 .debug_pubtypes
                0x00000be2      0x164 build/EXPLORER_16_PIC32MX270F256D/production/_ext/821501661/serial.o
 .debug_pubtypes
                0x00000d46       0x57 build/EXPLORER_16_PIC32MX270F256D/production/_ext/1472/timertest.o
 .debug_pubtypes
                0x00000d9d       0x89 build/EXPLORER_16_PIC32MX270F256D/production/_ext/1472/IntQueueTimer.o
 .debug_pubtypes
                0x00000e26       0x2c build/EXPLORER_16_PIC32MX270F256D/production/_ext/1472/printf-stdarg.o
 .debug_pubtypes
                0x00000e52       0x81 build/EXPLORER_16_PIC32MX270F256D/production/_ext/1472/main_blinky.o
 .debug_pubtypes
                0x00000ed3       0x83 build/EXPLORER_16_PIC32MX270F256D/production/_ext/1472/main_full.o
 .debug_pubtypes
                0x00000f56       0x38 build/EXPLORER_16_PIC32MX270F256D/production/_ext/1472/ConfigPerformance.o
 .debug_pubtypes
                0x00000f8e       0x25 build/EXPLORER_16_PIC32MX270F256D/production/_ext/809743516/ParTest_Explorer16.o
 .debug_pubtypes
                0x00000fb3       0x59 /Applications/microchip/xc32/v1.32/bin/bin/../../lib/gcc/pic32mx/4.5.2/libgcc.a(_udivdi3.o)
 .debug_pubtypes
                0x0000100c       0x59 /Applications/microchip/xc32/v1.32/bin/bin/../../lib/gcc/pic32mx/4.5.2/libgcc.a(_umoddi3.o)

.debug_ranges
 *(.debug_ranges)

.gnu.attributes
                0x00000000       0x10
 *(.gnu.attributes)
 .gnu.attributes
                0x00000000       0x10 build/EXPLORER_16_PIC32MX270F256D/production/_ext/332309696/port.o
 .gnu.attributes
                0x00000010       0x10 build/EXPLORER_16_PIC32MX270F256D/production/_ext/449926602/queue.o
 .gnu.attributes
                0x00000020       0x10 build/EXPLORER_16_PIC32MX270F256D/production/_ext/449926602/tasks.o
 .gnu.attributes
                0x00000030       0x10 build/EXPLORER_16_PIC32MX270F256D/production/_ext/449926602/list.o
 .gnu.attributes
                0x00000040       0x10 build/EXPLORER_16_PIC32MX270F256D/production/_ext/449926602/timers.o
 .gnu.attributes
                0x00000050       0x10 build/EXPLORER_16_PIC32MX270F256D/production/_ext/1884096877/heap_4.o
 .gnu.attributes
                0x00000060       0x10 build/EXPLORER_16_PIC32MX270F256D/production/_ext/1163846883/blocktim.o
 .gnu.attributes
                0x00000070       0x10 build/EXPLORER_16_PIC32MX270F256D/production/_ext/1163846883/comtest.o
 .gnu.attributes
                0x00000080       0x10 build/EXPLORER_16_PIC32MX270F256D/production/_ext/1163846883/semtest.o
 .gnu.attributes
                0x00000090       0x10 build/EXPLORER_16_PIC32MX270F256D/production/_ext/1163846883/QPeek.o
 .gnu.attributes
                0x000000a0       0x10 build/EXPLORER_16_PIC32MX270F256D/production/_ext/1163846883/IntQueue.o
 .gnu.attributes
                0x000000b0       0x10 build/EXPLORER_16_PIC32MX270F256D/production/_ext/1163846883/GenQTest.o
 .gnu.attributes
                0x000000c0       0x10 build/EXPLORER_16_PIC32MX270F256D/production/_ext/1163846883/flash_timer.o
 .gnu.attributes
                0x000000d0       0x10 build/EXPLORER_16_PIC32MX270F256D/production/_ext/1472/main.o
 .gnu.attributes
                0x000000e0       0x10 build/EXPLORER_16_PIC32MX270F256D/production/_ext/1472/lcd.o
 .gnu.attributes
                0x000000f0       0x10 build/EXPLORER_16_PIC32MX270F256D/production/_ext/821501661/serial.o
 .gnu.attributes
                0x00000100       0x10 build/EXPLORER_16_PIC32MX270F256D/production/_ext/1472/timertest.o
 .gnu.attributes
                0x00000110       0x10 build/EXPLORER_16_PIC32MX270F256D/production/_ext/1472/IntQueueTimer.o
 .gnu.attributes
                0x00000120       0x10 build/EXPLORER_16_PIC32MX270F256D/production/_ext/1472/printf-stdarg.o
 .gnu.attributes
                0x00000130       0x10 build/EXPLORER_16_PIC32MX270F256D/production/_ext/1472/main_blinky.o
 .gnu.attributes
                0x00000140       0x10 build/EXPLORER_16_PIC32MX270F256D/production/_ext/1472/main_full.o
 .gnu.attributes
                0x00000150       0x10 build/EXPLORER_16_PIC32MX270F256D/production/_ext/1472/ConfigPerformance.o
 .gnu.attributes
                0x00000160       0x10 build/EXPLORER_16_PIC32MX270F256D/production/_ext/809743516/ParTest_Explorer16.o
 .gnu.attributes
                0x00000170       0x10 /Applications/microchip/xc32/v1.32/bin/bin/../../lib/gcc/pic32mx/4.5.2/../../../../pic32mx/lib/libmchp_peripheral_32MX270F256D.a(int_configure_system_lib.o)
 .gnu.attributes
                0x00000180       0x10 /Applications/microchip/xc32/v1.32/bin/bin/../../lib/gcc/pic32mx/4.5.2/../../../../pic32mx/lib/libmchp_peripheral_32MX270F256D.a(int_enable_interrupts_lib.o)
 .gnu.attributes
                0x00000190       0x10 /Applications/microchip/xc32/v1.32/bin/bin/../../lib/gcc/pic32mx/4.5.2/../../../../pic32mx/lib/libmchp_peripheral_32MX270F256D.a(int_disable_interrupts_lib.o)
 .gnu.attributes
                0x000001a0       0x10 /Applications/microchip/xc32/v1.32/bin/bin/../../lib/gcc/pic32mx/4.5.2/../../../../pic32mx/lib/libmchp_peripheral_32MX270F256D.a(int_restore_interrupts_lib.o)
 .gnu.attributes
                0x000001b0       0x10 /Applications/microchip/xc32/v1.32/bin/bin/../../lib/gcc/pic32mx/4.5.2/../../../../pic32mx/lib/libmchp_peripheral_32MX270F256D.a(int_tbl_lib.o)
 .gnu.attributes
                0x000001c0       0x10 /Applications/microchip/xc32/v1.32/bin/bin/../../lib/gcc/pic32mx/4.5.2/../../../../pic32mx/lib/libmchp_peripheral_32MX270F256D.a(uart_lib.o)
 .gnu.attributes
                0x000001d0       0x10 /Applications/microchip/xc32/v1.32/bin/bin/../../lib/gcc/pic32mx/4.5.2/../../../../pic32mx/lib/libpic32.a(default-bootstrap-exception-handler.o)
 .gnu.attributes
                0x000001e0       0x10 /Applications/microchip/xc32/v1.32/bin/bin/../../lib/gcc/pic32mx/4.5.2/../../../../pic32mx/lib/libpic32.a(default-on-reset.o)
 .gnu.attributes
                0x000001f0       0x10 /Applications/microchip/xc32/v1.32/bin/bin/../../lib/gcc/pic32mx/4.5.2/../../../../pic32mx/lib/libpic32.a(default-on-bootstrap.o)
 .gnu.attributes
                0x00000200       0x10 /Applications/microchip/xc32/v1.32/bin/bin/../../lib/gcc/pic32mx/4.5.2/../../../../pic32mx/lib/libpic32.a(defaultinterrupt.o)
 .gnu.attributes
                0x00000210       0x10 /Applications/microchip/xc32/v1.32/bin/bin/../../lib/gcc/pic32mx/4.5.2/../../../../pic32mx/lib/libc.a(putchar.o)
 .gnu.attributes
                0x00000220       0x10 /Applications/microchip/xc32/v1.32/bin/bin/../../lib/gcc/pic32mx/4.5.2/../../../../pic32mx/lib/libc.a(sprintf_cdnopuxX.eo)
 .gnu.attributes
                0x00000230       0x10 /Applications/microchip/xc32/v1.32/bin/bin/../../lib/gcc/pic32mx/4.5.2/../../../../pic32mx/lib/libc.a(_iob.o)
 .gnu.attributes
                0x00000240       0x10 /Applications/microchip/xc32/v1.32/bin/bin/../../lib/gcc/pic32mx/4.5.2/../../../../pic32mx/lib/libc.a(_fputc_simple.o)
 .gnu.attributes
                0x00000250       0x10 /Applications/microchip/xc32/v1.32/bin/bin/../../lib/gcc/pic32mx/4.5.2/../../../../pic32mx/lib/libc.a(doprnt_cdnopuxX.eo)
 .gnu.attributes
                0x00000260       0x10 /Applications/microchip/xc32/v1.32/bin/bin/../../lib/gcc/pic32mx/4.5.2/../../../../pic32mx/lib/libc.a(_flsbuf_simple.o)
 .gnu.attributes
                0x00000270       0x10 /Applications/microchip/xc32/v1.32/bin/bin/../../lib/gcc/pic32mx/4.5.2/../../../../pic32mx/lib/libc.a(ctype.o)
 .gnu.attributes
                0x00000280       0x10 /Applications/microchip/xc32/v1.32/bin/bin/../../lib/gcc/pic32mx/4.5.2/libgcc.a(_udivdi3.o)
 .gnu.attributes
                0x00000290       0x10 /Applications/microchip/xc32/v1.32/bin/bin/../../lib/gcc/pic32mx/4.5.2/libgcc.a(_umoddi3.o)
LOAD /Applications/microchip/xc32/v1.32/bin/bin/../../lib/gcc/pic32mx/4.5.2/libgcc.a
START GROUP
LOAD /Applications/microchip/xc32/v1.32/bin/bin/../../lib/gcc/pic32mx/4.5.2/../../../../pic32mx/lib/libpic32.a
LOAD /Applications/microchip/xc32/v1.32/bin/bin/../../lib/gcc/pic32mx/4.5.2/../../../../pic32mx/lib/libdebug.a
LOAD /Applications/microchip/xc32/v1.32/bin/bin/../../lib/gcc/pic32mx/4.5.2/../../../../pic32mx/lib/libpic32.a
LOAD /Applications/microchip/xc32/v1.32/bin/bin/../../lib/gcc/pic32mx/4.5.2/../../../../pic32mx/lib/libm.a
LOAD /Applications/microchip/xc32/v1.32/bin/bin/../../lib/gcc/pic32mx/4.5.2/../../../../pic32mx/lib/libe.a
LOAD /Applications/microchip/xc32/v1.32/bin/bin/../../lib/gcc/pic32mx/4.5.2/../../../../pic32mx/lib/libdsp.a
LOAD /Applications/microchip/xc32/v1.32/bin/bin/../../lib/gcc/pic32mx/4.5.2/libgcc.a
LOAD /Applications/microchip/xc32/v1.32/bin/bin/../../lib/gcc/pic32mx/4.5.2/../../../../pic32mx/lib/libc.a
LOAD /Applications/microchip/xc32/v1.32/bin/bin/../../lib/gcc/pic32mx/4.5.2/../../../../pic32mx/lib/libpic32.a
END GROUP
LOAD /Applications/microchip/xc32/v1.32/bin/bin/../../lib/gcc/pic32mx/4.5.2/libgcc.a
OUTPUT(dist/EXPLORER_16_PIC32MX270F256D/production/RTOSDemo.X.production.elf elf32-tradlittlemips)
LOAD stack
LOAD data_init

.reginfo        0x00000000       0x18
 .reginfo       0x00000000       0x18 /Applications/microchip/xc32/v1.32/bin/bin/../../lib/gcc/pic32mx/4.5.2/../../../../pic32mx/lib/./proc/32MX270F256D/crt0_mips32r2.o

.stack          0xa0007698      0x400
 .stack         0xa0007698      0x400 stack

.bss            0xa00001b0     0x73a0
 .bss           0xa00001b0     0x6d60 build/EXPLORER_16_PIC32MX270F256D/production/_ext/1884096877/heap_4.o
 .bss           0xa0006f10      0x3e8 build/EXPLORER_16_PIC32MX270F256D/production/_ext/332309696/port.o
                0xa0006f10                xISRStack
 .bss           0xa00072f8      0x190 build/EXPLORER_16_PIC32MX270F256D/production/_ext/1163846883/IntQueue.o
 .bss           0xa0007488       0xc8 build/EXPLORER_16_PIC32MX270F256D/production/_ext/449926602/tasks.o

.data           0xa0007550       0xa0
 .data          0xa0007550       0xa0 /Applications/microchip/xc32/v1.32/bin/bin/../../lib/gcc/pic32mx/4.5.2/../../../../pic32mx/lib/libc.a(_iob.o)
                0xa0007550                _iob

.bss            0xa00075f0       0x7c
 .bss           0xa00075f0       0x40 /Applications/microchip/xc32/v1.32/bin/bin/../../lib/gcc/pic32mx/4.5.2/../../../../pic32mx/lib/libc.a(_iob.o)
                0xa00075f0                _sibuf
                0xa0007610                _sobuf
 .bss           0xa0007630       0x28 build/EXPLORER_16_PIC32MX270F256D/production/_ext/449926602/timers.o
 .bss           0xa0007658       0x14 build/EXPLORER_16_PIC32MX270F256D/production/_ext/1472/main_full.o

.bss%z1         0x00000000        0x0
 .bss           0x00000000        0x0 /Applications/microchip/xc32/v1.32/bin/bin/../../lib/gcc/pic32mx/4.5.2/libgcc.a(_umoddi3.o)

.data%z2        0x00000000        0x0
 .data          0x00000000        0x0 /Applications/microchip/xc32/v1.32/bin/bin/../../lib/gcc/pic32mx/4.5.2/libgcc.a(_umoddi3.o)

.bss%z3         0x00000000        0x0
 .bss           0x00000000        0x0 /Applications/microchip/xc32/v1.32/bin/bin/../../lib/gcc/pic32mx/4.5.2/libgcc.a(_udivdi3.o)

.data%z4        0x00000000        0x0
 .data          0x00000000        0x0 /Applications/microchip/xc32/v1.32/bin/bin/../../lib/gcc/pic32mx/4.5.2/libgcc.a(_udivdi3.o)

.bss%z5         0x00000000        0x0
 .bss           0x00000000        0x0 /Applications/microchip/xc32/v1.32/bin/bin/../../lib/gcc/pic32mx/4.5.2/../../../../pic32mx/lib/libc.a(ctype.o)

.data%z6        0x00000000        0x0
 .data          0x00000000        0x0 /Applications/microchip/xc32/v1.32/bin/bin/../../lib/gcc/pic32mx/4.5.2/../../../../pic32mx/lib/libc.a(ctype.o)

.bss%z7         0x00000000        0x0
 .bss           0x00000000        0x0 /Applications/microchip/xc32/v1.32/bin/bin/../../lib/gcc/pic32mx/4.5.2/../../../../pic32mx/lib/libc.a(_flsbuf_simple.o)

.data%z8        0x00000000        0x0
 .data          0x00000000        0x0 /Applications/microchip/xc32/v1.32/bin/bin/../../lib/gcc/pic32mx/4.5.2/../../../../pic32mx/lib/libc.a(_flsbuf_simple.o)

.bss%z9         0x00000000        0x0
 .bss           0x00000000        0x0 /Applications/microchip/xc32/v1.32/bin/bin/../../lib/gcc/pic32mx/4.5.2/../../../../pic32mx/lib/libc.a(doprnt_cdnopuxX.eo)

.data%z10       0x00000000        0x0
 .data          0x00000000        0x0 /Applications/microchip/xc32/v1.32/bin/bin/../../lib/gcc/pic32mx/4.5.2/../../../../pic32mx/lib/libc.a(doprnt_cdnopuxX.eo)

.bss%z11        0x00000000        0x0
 .bss           0x00000000        0x0 /Applications/microchip/xc32/v1.32/bin/bin/../../lib/gcc/pic32mx/4.5.2/../../../../pic32mx/lib/libc.a(_fputc_simple.o)

.data%z12       0x00000000        0x0
 .data          0x00000000        0x0 /Applications/microchip/xc32/v1.32/bin/bin/../../lib/gcc/pic32mx/4.5.2/../../../../pic32mx/lib/libc.a(_fputc_simple.o)

.bss%z13        0x00000000        0x0
 .bss           0x00000000        0x0 /Applications/microchip/xc32/v1.32/bin/bin/../../lib/gcc/pic32mx/4.5.2/../../../../pic32mx/lib/libc.a(sprintf_cdnopuxX.eo)

.data%z14       0x00000000        0x0
 .data          0x00000000        0x0 /Applications/microchip/xc32/v1.32/bin/bin/../../lib/gcc/pic32mx/4.5.2/../../../../pic32mx/lib/libc.a(sprintf_cdnopuxX.eo)

.bss%z15        0x00000000        0x0
 .bss           0x00000000        0x0 /Applications/microchip/xc32/v1.32/bin/bin/../../lib/gcc/pic32mx/4.5.2/../../../../pic32mx/lib/libc.a(putchar.o)

.data%z16       0x00000000        0x0
 .data          0x00000000        0x0 /Applications/microchip/xc32/v1.32/bin/bin/../../lib/gcc/pic32mx/4.5.2/../../../../pic32mx/lib/libc.a(putchar.o)

.bss%z17        0x00000000        0x0
 .bss           0x00000000        0x0 /Applications/microchip/xc32/v1.32/bin/bin/../../lib/gcc/pic32mx/4.5.2/../../../../pic32mx/lib/libpic32.a(defaultinterrupt.o)

.data%z18       0x00000000        0x0
 .data          0x00000000        0x0 /Applications/microchip/xc32/v1.32/bin/bin/../../lib/gcc/pic32mx/4.5.2/../../../../pic32mx/lib/libpic32.a(defaultinterrupt.o)

.bss%z19        0x00000000        0x0
 .bss           0x00000000        0x0 /Applications/microchip/xc32/v1.32/bin/bin/../../lib/gcc/pic32mx/4.5.2/../../../../pic32mx/lib/libpic32.a(vector63.o)

.data%z20       0x00000000        0x0
 .data          0x00000000        0x0 /Applications/microchip/xc32/v1.32/bin/bin/../../lib/gcc/pic32mx/4.5.2/../../../../pic32mx/lib/libpic32.a(vector63.o)

.bss%z21        0x00000000        0x0
 .bss           0x00000000        0x0 /Applications/microchip/xc32/v1.32/bin/bin/../../lib/gcc/pic32mx/4.5.2/../../../../pic32mx/lib/libpic32.a(vector62.o)

.data%z22       0x00000000        0x0
 .data          0x00000000        0x0 /Applications/microchip/xc32/v1.32/bin/bin/../../lib/gcc/pic32mx/4.5.2/../../../../pic32mx/lib/libpic32.a(vector62.o)

.bss%z23        0x00000000        0x0
 .bss           0x00000000        0x0 /Applications/microchip/xc32/v1.32/bin/bin/../../lib/gcc/pic32mx/4.5.2/../../../../pic32mx/lib/libpic32.a(vector61.o)

.data%z24       0x00000000        0x0
 .data          0x00000000        0x0 /Applications/microchip/xc32/v1.32/bin/bin/../../lib/gcc/pic32mx/4.5.2/../../../../pic32mx/lib/libpic32.a(vector61.o)

.bss%z25        0x00000000        0x0
 .bss           0x00000000        0x0 /Applications/microchip/xc32/v1.32/bin/bin/../../lib/gcc/pic32mx/4.5.2/../../../../pic32mx/lib/libpic32.a(vector60.o)

.data%z26       0x00000000        0x0
 .data          0x00000000        0x0 /Applications/microchip/xc32/v1.32/bin/bin/../../lib/gcc/pic32mx/4.5.2/../../../../pic32mx/lib/libpic32.a(vector60.o)

.bss%z27        0x00000000        0x0
 .bss           0x00000000        0x0 /Applications/microchip/xc32/v1.32/bin/bin/../../lib/gcc/pic32mx/4.5.2/../../../../pic32mx/lib/libpic32.a(vector59.o)

.data%z28       0x00000000        0x0
 .data          0x00000000        0x0 /Applications/microchip/xc32/v1.32/bin/bin/../../lib/gcc/pic32mx/4.5.2/../../../../pic32mx/lib/libpic32.a(vector59.o)

.bss%z29        0x00000000        0x0
 .bss           0x00000000        0x0 /Applications/microchip/xc32/v1.32/bin/bin/../../lib/gcc/pic32mx/4.5.2/../../../../pic32mx/lib/libpic32.a(vector58.o)

.data%z30       0x00000000        0x0
 .data          0x00000000        0x0 /Applications/microchip/xc32/v1.32/bin/bin/../../lib/gcc/pic32mx/4.5.2/../../../../pic32mx/lib/libpic32.a(vector58.o)

.bss%z31        0x00000000        0x0
 .bss           0x00000000        0x0 /Applications/microchip/xc32/v1.32/bin/bin/../../lib/gcc/pic32mx/4.5.2/../../../../pic32mx/lib/libpic32.a(vector57.o)

.data%z32       0x00000000        0x0
 .data          0x00000000        0x0 /Applications/microchip/xc32/v1.32/bin/bin/../../lib/gcc/pic32mx/4.5.2/../../../../pic32mx/lib/libpic32.a(vector57.o)

.bss%z33        0x00000000        0x0
 .bss           0x00000000        0x0 /Applications/microchip/xc32/v1.32/bin/bin/../../lib/gcc/pic32mx/4.5.2/../../../../pic32mx/lib/libpic32.a(vector56.o)

.data%z34       0x00000000        0x0
 .data          0x00000000        0x0 /Applications/microchip/xc32/v1.32/bin/bin/../../lib/gcc/pic32mx/4.5.2/../../../../pic32mx/lib/libpic32.a(vector56.o)

.bss%z35        0x00000000        0x0
 .bss           0x00000000        0x0 /Applications/microchip/xc32/v1.32/bin/bin/../../lib/gcc/pic32mx/4.5.2/../../../../pic32mx/lib/libpic32.a(vector55.o)

.data%z36       0x00000000        0x0
 .data          0x00000000        0x0 /Applications/microchip/xc32/v1.32/bin/bin/../../lib/gcc/pic32mx/4.5.2/../../../../pic32mx/lib/libpic32.a(vector55.o)

.bss%z37        0x00000000        0x0
 .bss           0x00000000        0x0 /Applications/microchip/xc32/v1.32/bin/bin/../../lib/gcc/pic32mx/4.5.2/../../../../pic32mx/lib/libpic32.a(vector54.o)

.data%z38       0x00000000        0x0
 .data          0x00000000        0x0 /Applications/microchip/xc32/v1.32/bin/bin/../../lib/gcc/pic32mx/4.5.2/../../../../pic32mx/lib/libpic32.a(vector54.o)

.bss%z39        0x00000000        0x0
 .bss           0x00000000        0x0 /Applications/microchip/xc32/v1.32/bin/bin/../../lib/gcc/pic32mx/4.5.2/../../../../pic32mx/lib/libpic32.a(vector53.o)

.data%z40       0x00000000        0x0
 .data          0x00000000        0x0 /Applications/microchip/xc32/v1.32/bin/bin/../../lib/gcc/pic32mx/4.5.2/../../../../pic32mx/lib/libpic32.a(vector53.o)

.bss%z41        0x00000000        0x0
 .bss           0x00000000        0x0 /Applications/microchip/xc32/v1.32/bin/bin/../../lib/gcc/pic32mx/4.5.2/../../../../pic32mx/lib/libpic32.a(vector52.o)

.data%z42       0x00000000        0x0
 .data          0x00000000        0x0 /Applications/microchip/xc32/v1.32/bin/bin/../../lib/gcc/pic32mx/4.5.2/../../../../pic32mx/lib/libpic32.a(vector52.o)

.bss%z43        0x00000000        0x0
 .bss           0x00000000        0x0 /Applications/microchip/xc32/v1.32/bin/bin/../../lib/gcc/pic32mx/4.5.2/../../../../pic32mx/lib/libpic32.a(vector51.o)

.data%z44       0x00000000        0x0
 .data          0x00000000        0x0 /Applications/microchip/xc32/v1.32/bin/bin/../../lib/gcc/pic32mx/4.5.2/../../../../pic32mx/lib/libpic32.a(vector51.o)

.bss%z45        0x00000000        0x0
 .bss           0x00000000        0x0 /Applications/microchip/xc32/v1.32/bin/bin/../../lib/gcc/pic32mx/4.5.2/../../../../pic32mx/lib/libpic32.a(vector50.o)

.data%z46       0x00000000        0x0
 .data          0x00000000        0x0 /Applications/microchip/xc32/v1.32/bin/bin/../../lib/gcc/pic32mx/4.5.2/../../../../pic32mx/lib/libpic32.a(vector50.o)

.bss%z47        0x00000000        0x0
 .bss           0x00000000        0x0 /Applications/microchip/xc32/v1.32/bin/bin/../../lib/gcc/pic32mx/4.5.2/../../../../pic32mx/lib/libpic32.a(vector49.o)

.data%z48       0x00000000        0x0
 .data          0x00000000        0x0 /Applications/microchip/xc32/v1.32/bin/bin/../../lib/gcc/pic32mx/4.5.2/../../../../pic32mx/lib/libpic32.a(vector49.o)

.bss%z49        0x00000000        0x0
 .bss           0x00000000        0x0 /Applications/microchip/xc32/v1.32/bin/bin/../../lib/gcc/pic32mx/4.5.2/../../../../pic32mx/lib/libpic32.a(vector48.o)

.data%z50       0x00000000        0x0
 .data          0x00000000        0x0 /Applications/microchip/xc32/v1.32/bin/bin/../../lib/gcc/pic32mx/4.5.2/../../../../pic32mx/lib/libpic32.a(vector48.o)

.bss%z51        0x00000000        0x0
 .bss           0x00000000        0x0 /Applications/microchip/xc32/v1.32/bin/bin/../../lib/gcc/pic32mx/4.5.2/../../../../pic32mx/lib/libpic32.a(vector47.o)

.data%z52       0x00000000        0x0
 .data          0x00000000        0x0 /Applications/microchip/xc32/v1.32/bin/bin/../../lib/gcc/pic32mx/4.5.2/../../../../pic32mx/lib/libpic32.a(vector47.o)

.bss%z53        0x00000000        0x0
 .bss           0x00000000        0x0 /Applications/microchip/xc32/v1.32/bin/bin/../../lib/gcc/pic32mx/4.5.2/../../../../pic32mx/lib/libpic32.a(vector46.o)

.data%z54       0x00000000        0x0
 .data          0x00000000        0x0 /Applications/microchip/xc32/v1.32/bin/bin/../../lib/gcc/pic32mx/4.5.2/../../../../pic32mx/lib/libpic32.a(vector46.o)

.bss%z55        0x00000000        0x0
 .bss           0x00000000        0x0 /Applications/microchip/xc32/v1.32/bin/bin/../../lib/gcc/pic32mx/4.5.2/../../../../pic32mx/lib/libpic32.a(vector45.o)

.data%z56       0x00000000        0x0
 .data          0x00000000        0x0 /Applications/microchip/xc32/v1.32/bin/bin/../../lib/gcc/pic32mx/4.5.2/../../../../pic32mx/lib/libpic32.a(vector45.o)

.bss%z57        0x00000000        0x0
 .bss           0x00000000        0x0 /Applications/microchip/xc32/v1.32/bin/bin/../../lib/gcc/pic32mx/4.5.2/../../../../pic32mx/lib/libpic32.a(vector44.o)

.data%z58       0x00000000        0x0
 .data          0x00000000        0x0 /Applications/microchip/xc32/v1.32/bin/bin/../../lib/gcc/pic32mx/4.5.2/../../../../pic32mx/lib/libpic32.a(vector44.o)

.bss%z59        0x00000000        0x0
 .bss           0x00000000        0x0 /Applications/microchip/xc32/v1.32/bin/bin/../../lib/gcc/pic32mx/4.5.2/../../../../pic32mx/lib/libpic32.a(vector43.o)

.data%z60       0x00000000        0x0
 .data          0x00000000        0x0 /Applications/microchip/xc32/v1.32/bin/bin/../../lib/gcc/pic32mx/4.5.2/../../../../pic32mx/lib/libpic32.a(vector43.o)

.bss%z61        0x00000000        0x0
 .bss           0x00000000        0x0 /Applications/microchip/xc32/v1.32/bin/bin/../../lib/gcc/pic32mx/4.5.2/../../../../pic32mx/lib/libpic32.a(vector42.o)

.data%z62       0x00000000        0x0
 .data          0x00000000        0x0 /Applications/microchip/xc32/v1.32/bin/bin/../../lib/gcc/pic32mx/4.5.2/../../../../pic32mx/lib/libpic32.a(vector42.o)

.bss%z63        0x00000000        0x0
 .bss           0x00000000        0x0 /Applications/microchip/xc32/v1.32/bin/bin/../../lib/gcc/pic32mx/4.5.2/../../../../pic32mx/lib/libpic32.a(vector41.o)

.data%z64       0x00000000        0x0
 .data          0x00000000        0x0 /Applications/microchip/xc32/v1.32/bin/bin/../../lib/gcc/pic32mx/4.5.2/../../../../pic32mx/lib/libpic32.a(vector41.o)

.bss%z65        0x00000000        0x0
 .bss           0x00000000        0x0 /Applications/microchip/xc32/v1.32/bin/bin/../../lib/gcc/pic32mx/4.5.2/../../../../pic32mx/lib/libpic32.a(vector40.o)

.data%z66       0x00000000        0x0
 .data          0x00000000        0x0 /Applications/microchip/xc32/v1.32/bin/bin/../../lib/gcc/pic32mx/4.5.2/../../../../pic32mx/lib/libpic32.a(vector40.o)

.bss%z67        0x00000000        0x0
 .bss           0x00000000        0x0 /Applications/microchip/xc32/v1.32/bin/bin/../../lib/gcc/pic32mx/4.5.2/../../../../pic32mx/lib/libpic32.a(vector39.o)

.data%z68       0x00000000        0x0
 .data          0x00000000        0x0 /Applications/microchip/xc32/v1.32/bin/bin/../../lib/gcc/pic32mx/4.5.2/../../../../pic32mx/lib/libpic32.a(vector39.o)

.bss%z69        0x00000000        0x0
 .bss           0x00000000        0x0 /Applications/microchip/xc32/v1.32/bin/bin/../../lib/gcc/pic32mx/4.5.2/../../../../pic32mx/lib/libpic32.a(vector38.o)

.data%z70       0x00000000        0x0
 .data          0x00000000        0x0 /Applications/microchip/xc32/v1.32/bin/bin/../../lib/gcc/pic32mx/4.5.2/../../../../pic32mx/lib/libpic32.a(vector38.o)

.bss%z71        0x00000000        0x0
 .bss           0x00000000        0x0 /Applications/microchip/xc32/v1.32/bin/bin/../../lib/gcc/pic32mx/4.5.2/../../../../pic32mx/lib/libpic32.a(vector37.o)

.data%z72       0x00000000        0x0
 .data          0x00000000        0x0 /Applications/microchip/xc32/v1.32/bin/bin/../../lib/gcc/pic32mx/4.5.2/../../../../pic32mx/lib/libpic32.a(vector37.o)

.bss%z73        0x00000000        0x0
 .bss           0x00000000        0x0 /Applications/microchip/xc32/v1.32/bin/bin/../../lib/gcc/pic32mx/4.5.2/../../../../pic32mx/lib/libpic32.a(vector36.o)

.data%z74       0x00000000        0x0
 .data          0x00000000        0x0 /Applications/microchip/xc32/v1.32/bin/bin/../../lib/gcc/pic32mx/4.5.2/../../../../pic32mx/lib/libpic32.a(vector36.o)

.bss%z75        0x00000000        0x0
 .bss           0x00000000        0x0 /Applications/microchip/xc32/v1.32/bin/bin/../../lib/gcc/pic32mx/4.5.2/../../../../pic32mx/lib/libpic32.a(vector35.o)

.data%z76       0x00000000        0x0
 .data          0x00000000        0x0 /Applications/microchip/xc32/v1.32/bin/bin/../../lib/gcc/pic32mx/4.5.2/../../../../pic32mx/lib/libpic32.a(vector35.o)

.bss%z77        0x00000000        0x0
 .bss           0x00000000        0x0 /Applications/microchip/xc32/v1.32/bin/bin/../../lib/gcc/pic32mx/4.5.2/../../../../pic32mx/lib/libpic32.a(vector34.o)

.data%z78       0x00000000        0x0
 .data          0x00000000        0x0 /Applications/microchip/xc32/v1.32/bin/bin/../../lib/gcc/pic32mx/4.5.2/../../../../pic32mx/lib/libpic32.a(vector34.o)

.bss%z79        0x00000000        0x0
 .bss           0x00000000        0x0 /Applications/microchip/xc32/v1.32/bin/bin/../../lib/gcc/pic32mx/4.5.2/../../../../pic32mx/lib/libpic32.a(vector33.o)

.data%z80       0x00000000        0x0
 .data          0x00000000        0x0 /Applications/microchip/xc32/v1.32/bin/bin/../../lib/gcc/pic32mx/4.5.2/../../../../pic32mx/lib/libpic32.a(vector33.o)

.bss%z81        0x00000000        0x0
 .bss           0x00000000        0x0 /Applications/microchip/xc32/v1.32/bin/bin/../../lib/gcc/pic32mx/4.5.2/../../../../pic32mx/lib/libpic32.a(vector31.o)

.data%z82       0x00000000        0x0
 .data          0x00000000        0x0 /Applications/microchip/xc32/v1.32/bin/bin/../../lib/gcc/pic32mx/4.5.2/../../../../pic32mx/lib/libpic32.a(vector31.o)

.bss%z83        0x00000000        0x0
 .bss           0x00000000        0x0 /Applications/microchip/xc32/v1.32/bin/bin/../../lib/gcc/pic32mx/4.5.2/../../../../pic32mx/lib/libpic32.a(vector30.o)

.data%z84       0x00000000        0x0
 .data          0x00000000        0x0 /Applications/microchip/xc32/v1.32/bin/bin/../../lib/gcc/pic32mx/4.5.2/../../../../pic32mx/lib/libpic32.a(vector30.o)

.bss%z85        0x00000000        0x0
 .bss           0x00000000        0x0 /Applications/microchip/xc32/v1.32/bin/bin/../../lib/gcc/pic32mx/4.5.2/../../../../pic32mx/lib/libpic32.a(vector29.o)

.data%z86       0x00000000        0x0
 .data          0x00000000        0x0 /Applications/microchip/xc32/v1.32/bin/bin/../../lib/gcc/pic32mx/4.5.2/../../../../pic32mx/lib/libpic32.a(vector29.o)

.bss%z87        0x00000000        0x0
 .bss           0x00000000        0x0 /Applications/microchip/xc32/v1.32/bin/bin/../../lib/gcc/pic32mx/4.5.2/../../../../pic32mx/lib/libpic32.a(vector28.o)

.data%z88       0x00000000        0x0
 .data          0x00000000        0x0 /Applications/microchip/xc32/v1.32/bin/bin/../../lib/gcc/pic32mx/4.5.2/../../../../pic32mx/lib/libpic32.a(vector28.o)

.bss%z89        0x00000000        0x0
 .bss           0x00000000        0x0 /Applications/microchip/xc32/v1.32/bin/bin/../../lib/gcc/pic32mx/4.5.2/../../../../pic32mx/lib/libpic32.a(vector27.o)

.data%z90       0x00000000        0x0
 .data          0x00000000        0x0 /Applications/microchip/xc32/v1.32/bin/bin/../../lib/gcc/pic32mx/4.5.2/../../../../pic32mx/lib/libpic32.a(vector27.o)

.bss%z91        0x00000000        0x0
 .bss           0x00000000        0x0 /Applications/microchip/xc32/v1.32/bin/bin/../../lib/gcc/pic32mx/4.5.2/../../../../pic32mx/lib/libpic32.a(vector26.o)

.data%z92       0x00000000        0x0
 .data          0x00000000        0x0 /Applications/microchip/xc32/v1.32/bin/bin/../../lib/gcc/pic32mx/4.5.2/../../../../pic32mx/lib/libpic32.a(vector26.o)

.bss%z93        0x00000000        0x0
 .bss           0x00000000        0x0 /Applications/microchip/xc32/v1.32/bin/bin/../../lib/gcc/pic32mx/4.5.2/../../../../pic32mx/lib/libpic32.a(vector25.o)

.data%z94       0x00000000        0x0
 .data          0x00000000        0x0 /Applications/microchip/xc32/v1.32/bin/bin/../../lib/gcc/pic32mx/4.5.2/../../../../pic32mx/lib/libpic32.a(vector25.o)

.bss%z95        0x00000000        0x0
 .bss           0x00000000        0x0 /Applications/microchip/xc32/v1.32/bin/bin/../../lib/gcc/pic32mx/4.5.2/../../../../pic32mx/lib/libpic32.a(vector24.o)

.data%z96       0x00000000        0x0
 .data          0x00000000        0x0 /Applications/microchip/xc32/v1.32/bin/bin/../../lib/gcc/pic32mx/4.5.2/../../../../pic32mx/lib/libpic32.a(vector24.o)

.bss%z97        0x00000000        0x0
 .bss           0x00000000        0x0 /Applications/microchip/xc32/v1.32/bin/bin/../../lib/gcc/pic32mx/4.5.2/../../../../pic32mx/lib/libpic32.a(vector23.o)

.data%z98       0x00000000        0x0
 .data          0x00000000        0x0 /Applications/microchip/xc32/v1.32/bin/bin/../../lib/gcc/pic32mx/4.5.2/../../../../pic32mx/lib/libpic32.a(vector23.o)

.bss%z99        0x00000000        0x0
 .bss           0x00000000        0x0 /Applications/microchip/xc32/v1.32/bin/bin/../../lib/gcc/pic32mx/4.5.2/../../../../pic32mx/lib/libpic32.a(vector22.o)

.data%z100      0x00000000        0x0
 .data          0x00000000        0x0 /Applications/microchip/xc32/v1.32/bin/bin/../../lib/gcc/pic32mx/4.5.2/../../../../pic32mx/lib/libpic32.a(vector22.o)

.bss%z101       0x00000000        0x0
 .bss           0x00000000        0x0 /Applications/microchip/xc32/v1.32/bin/bin/../../lib/gcc/pic32mx/4.5.2/../../../../pic32mx/lib/libpic32.a(vector21.o)

.data%z102      0x00000000        0x0
 .data          0x00000000        0x0 /Applications/microchip/xc32/v1.32/bin/bin/../../lib/gcc/pic32mx/4.5.2/../../../../pic32mx/lib/libpic32.a(vector21.o)

.bss%z103       0x00000000        0x0
 .bss           0x00000000        0x0 /Applications/microchip/xc32/v1.32/bin/bin/../../lib/gcc/pic32mx/4.5.2/../../../../pic32mx/lib/libpic32.a(vector20.o)

.data%z104      0x00000000        0x0
 .data          0x00000000        0x0 /Applications/microchip/xc32/v1.32/bin/bin/../../lib/gcc/pic32mx/4.5.2/../../../../pic32mx/lib/libpic32.a(vector20.o)

.bss%z105       0x00000000        0x0
 .bss           0x00000000        0x0 /Applications/microchip/xc32/v1.32/bin/bin/../../lib/gcc/pic32mx/4.5.2/../../../../pic32mx/lib/libpic32.a(vector19.o)

.data%z106      0x00000000        0x0
 .data          0x00000000        0x0 /Applications/microchip/xc32/v1.32/bin/bin/../../lib/gcc/pic32mx/4.5.2/../../../../pic32mx/lib/libpic32.a(vector19.o)

.bss%z107       0x00000000        0x0
 .bss           0x00000000        0x0 /Applications/microchip/xc32/v1.32/bin/bin/../../lib/gcc/pic32mx/4.5.2/../../../../pic32mx/lib/libpic32.a(vector18.o)

.data%z108      0x00000000        0x0
 .data          0x00000000        0x0 /Applications/microchip/xc32/v1.32/bin/bin/../../lib/gcc/pic32mx/4.5.2/../../../../pic32mx/lib/libpic32.a(vector18.o)

.bss%z109       0x00000000        0x0
 .bss           0x00000000        0x0 /Applications/microchip/xc32/v1.32/bin/bin/../../lib/gcc/pic32mx/4.5.2/../../../../pic32mx/lib/libpic32.a(vector17.o)

.data%z110      0x00000000        0x0
 .data          0x00000000        0x0 /Applications/microchip/xc32/v1.32/bin/bin/../../lib/gcc/pic32mx/4.5.2/../../../../pic32mx/lib/libpic32.a(vector17.o)

.bss%z111       0x00000000        0x0
 .bss           0x00000000        0x0 /Applications/microchip/xc32/v1.32/bin/bin/../../lib/gcc/pic32mx/4.5.2/../../../../pic32mx/lib/libpic32.a(vector15.o)

.data%z112      0x00000000        0x0
 .data          0x00000000        0x0 /Applications/microchip/xc32/v1.32/bin/bin/../../lib/gcc/pic32mx/4.5.2/../../../../pic32mx/lib/libpic32.a(vector15.o)

.bss%z113       0x00000000        0x0
 .bss           0x00000000        0x0 /Applications/microchip/xc32/v1.32/bin/bin/../../lib/gcc/pic32mx/4.5.2/../../../../pic32mx/lib/libpic32.a(vector14.o)

.data%z114      0x00000000        0x0
 .data          0x00000000        0x0 /Applications/microchip/xc32/v1.32/bin/bin/../../lib/gcc/pic32mx/4.5.2/../../../../pic32mx/lib/libpic32.a(vector14.o)

.bss%z115       0x00000000        0x0
 .bss           0x00000000        0x0 /Applications/microchip/xc32/v1.32/bin/bin/../../lib/gcc/pic32mx/4.5.2/../../../../pic32mx/lib/libpic32.a(vector13.o)

.data%z116      0x00000000        0x0
 .data          0x00000000        0x0 /Applications/microchip/xc32/v1.32/bin/bin/../../lib/gcc/pic32mx/4.5.2/../../../../pic32mx/lib/libpic32.a(vector13.o)

.bss%z117       0x00000000        0x0
 .bss           0x00000000        0x0 /Applications/microchip/xc32/v1.32/bin/bin/../../lib/gcc/pic32mx/4.5.2/../../../../pic32mx/lib/libpic32.a(vector11.o)

.data%z118      0x00000000        0x0
 .data          0x00000000        0x0 /Applications/microchip/xc32/v1.32/bin/bin/../../lib/gcc/pic32mx/4.5.2/../../../../pic32mx/lib/libpic32.a(vector11.o)

.bss%z119       0x00000000        0x0
 .bss           0x00000000        0x0 /Applications/microchip/xc32/v1.32/bin/bin/../../lib/gcc/pic32mx/4.5.2/../../../../pic32mx/lib/libpic32.a(vector10.o)

.data%z120      0x00000000        0x0
 .data          0x00000000        0x0 /Applications/microchip/xc32/v1.32/bin/bin/../../lib/gcc/pic32mx/4.5.2/../../../../pic32mx/lib/libpic32.a(vector10.o)

.bss%z121       0x00000000        0x0
 .bss           0x00000000        0x0 /Applications/microchip/xc32/v1.32/bin/bin/../../lib/gcc/pic32mx/4.5.2/../../../../pic32mx/lib/libpic32.a(vector9.o)

.data%z122      0x00000000        0x0
 .data          0x00000000        0x0 /Applications/microchip/xc32/v1.32/bin/bin/../../lib/gcc/pic32mx/4.5.2/../../../../pic32mx/lib/libpic32.a(vector9.o)

.bss%z123       0x00000000        0x0
 .bss           0x00000000        0x0 /Applications/microchip/xc32/v1.32/bin/bin/../../lib/gcc/pic32mx/4.5.2/../../../../pic32mx/lib/libpic32.a(vector7.o)

.data%z124      0x00000000        0x0
 .data          0x00000000        0x0 /Applications/microchip/xc32/v1.32/bin/bin/../../lib/gcc/pic32mx/4.5.2/../../../../pic32mx/lib/libpic32.a(vector7.o)

.bss%z125       0x00000000        0x0
 .bss           0x00000000        0x0 /Applications/microchip/xc32/v1.32/bin/bin/../../lib/gcc/pic32mx/4.5.2/../../../../pic32mx/lib/libpic32.a(vector6.o)

.data%z126      0x00000000        0x0
 .data          0x00000000        0x0 /Applications/microchip/xc32/v1.32/bin/bin/../../lib/gcc/pic32mx/4.5.2/../../../../pic32mx/lib/libpic32.a(vector6.o)

.bss%z127       0x00000000        0x0
 .bss           0x00000000        0x0 /Applications/microchip/xc32/v1.32/bin/bin/../../lib/gcc/pic32mx/4.5.2/../../../../pic32mx/lib/libpic32.a(vector5.o)

.data%z128      0x00000000        0x0
 .data          0x00000000        0x0 /Applications/microchip/xc32/v1.32/bin/bin/../../lib/gcc/pic32mx/4.5.2/../../../../pic32mx/lib/libpic32.a(vector5.o)

.bss%z129       0x00000000        0x0
 .bss           0x00000000        0x0 /Applications/microchip/xc32/v1.32/bin/bin/../../lib/gcc/pic32mx/4.5.2/../../../../pic32mx/lib/libpic32.a(vector3.o)

.data%z130      0x00000000        0x0
 .data          0x00000000        0x0 /Applications/microchip/xc32/v1.32/bin/bin/../../lib/gcc/pic32mx/4.5.2/../../../../pic32mx/lib/libpic32.a(vector3.o)

.bss%z131       0x00000000        0x0
 .bss           0x00000000        0x0 /Applications/microchip/xc32/v1.32/bin/bin/../../lib/gcc/pic32mx/4.5.2/../../../../pic32mx/lib/libpic32.a(vector2.o)

.data%z132      0x00000000        0x0
 .data          0x00000000        0x0 /Applications/microchip/xc32/v1.32/bin/bin/../../lib/gcc/pic32mx/4.5.2/../../../../pic32mx/lib/libpic32.a(vector2.o)

.bss%z133       0x00000000        0x0
 .bss           0x00000000        0x0 /Applications/microchip/xc32/v1.32/bin/bin/../../lib/gcc/pic32mx/4.5.2/../../../../pic32mx/lib/libpic32.a(vector0.o)

.data%z134      0x00000000        0x0
 .data          0x00000000        0x0 /Applications/microchip/xc32/v1.32/bin/bin/../../lib/gcc/pic32mx/4.5.2/../../../../pic32mx/lib/libpic32.a(vector0.o)

.bss%z135       0x00000000        0x0
 .bss           0x00000000        0x0 /Applications/microchip/xc32/v1.32/bin/bin/../../lib/gcc/pic32mx/4.5.2/../../../../pic32mx/lib/libpic32.a(general-exception.o)

.data%z136      0x00000000        0x0
 .data          0x00000000        0x0 /Applications/microchip/xc32/v1.32/bin/bin/../../lib/gcc/pic32mx/4.5.2/../../../../pic32mx/lib/libpic32.a(general-exception.o)

.bss%z137       0x00000000        0x0
 .bss           0x00000000        0x0 /Applications/microchip/xc32/v1.32/bin/bin/../../lib/gcc/pic32mx/4.5.2/../../../../pic32mx/lib/libpic32.a(default-nmi-handler.o)

.data%z138      0x00000000        0x0
 .data          0x00000000        0x0 /Applications/microchip/xc32/v1.32/bin/bin/../../lib/gcc/pic32mx/4.5.2/../../../../pic32mx/lib/libpic32.a(default-nmi-handler.o)

.bss%z139       0x00000000        0x0
 .bss           0x00000000        0x0 /Applications/microchip/xc32/v1.32/bin/bin/../../lib/gcc/pic32mx/4.5.2/../../../../pic32mx/lib/libpic32.a(default-on-bootstrap.o)

.data%z140      0x00000000        0x0
 .data          0x00000000        0x0 /Applications/microchip/xc32/v1.32/bin/bin/../../lib/gcc/pic32mx/4.5.2/../../../../pic32mx/lib/libpic32.a(default-on-bootstrap.o)

.bss%z141       0x00000000        0x0
 .bss           0x00000000        0x0 /Applications/microchip/xc32/v1.32/bin/bin/../../lib/gcc/pic32mx/4.5.2/../../../../pic32mx/lib/libpic32.a(default-on-reset.o)

.data%z142      0x00000000        0x0
 .data          0x00000000        0x0 /Applications/microchip/xc32/v1.32/bin/bin/../../lib/gcc/pic32mx/4.5.2/../../../../pic32mx/lib/libpic32.a(default-on-reset.o)

.bss%z143       0x00000000        0x0
 .bss           0x00000000        0x0 /Applications/microchip/xc32/v1.32/bin/bin/../../lib/gcc/pic32mx/4.5.2/../../../../pic32mx/lib/libpic32.a(default-bootstrap-exception-handler.o)

.data%z144      0x00000000        0x0
 .data          0x00000000        0x0 /Applications/microchip/xc32/v1.32/bin/bin/../../lib/gcc/pic32mx/4.5.2/../../../../pic32mx/lib/libpic32.a(default-bootstrap-exception-handler.o)

.bss%z145       0x00000000        0x0
 .bss           0x00000000        0x0 /Applications/microchip/xc32/v1.32/bin/bin/../../lib/gcc/pic32mx/4.5.2/../../../../pic32mx/lib/libpic32.a(memset.o)

.data%z146      0x00000000        0x0
 .data          0x00000000        0x0 /Applications/microchip/xc32/v1.32/bin/bin/../../lib/gcc/pic32mx/4.5.2/../../../../pic32mx/lib/libpic32.a(memset.o)

.bss%z147       0x00000000        0x0
 .bss           0x00000000        0x0 /Applications/microchip/xc32/v1.32/bin/bin/../../lib/gcc/pic32mx/4.5.2/../../../../pic32mx/lib/libpic32.a(memcpy.o)

.data%z148      0x00000000        0x0
 .data          0x00000000        0x0 /Applications/microchip/xc32/v1.32/bin/bin/../../lib/gcc/pic32mx/4.5.2/../../../../pic32mx/lib/libpic32.a(memcpy.o)

.bss%z149       0x00000000        0x0
 .bss           0x00000000        0x0 /Applications/microchip/xc32/v1.32/bin/bin/../../lib/gcc/pic32mx/4.5.2/../../../../pic32mx/lib/libpic32.a(memcmp.o)

.data%z150      0x00000000        0x0
 .data          0x00000000        0x0 /Applications/microchip/xc32/v1.32/bin/bin/../../lib/gcc/pic32mx/4.5.2/../../../../pic32mx/lib/libpic32.a(memcmp.o)

.bss%z151       0x00000000        0x0
 .bss           0x00000000        0x0 /Applications/microchip/xc32/v1.32/bin/bin/../../lib/gcc/pic32mx/4.5.2/../../../../pic32mx/lib/libmchp_peripheral_32MX270F256D.a(uart_lib.o)

.data%z152      0x00000000        0x0
 .data          0x00000000        0x0 /Applications/microchip/xc32/v1.32/bin/bin/../../lib/gcc/pic32mx/4.5.2/../../../../pic32mx/lib/libmchp_peripheral_32MX270F256D.a(uart_lib.o)

.bss%z153       0x00000000        0x0
 .bss           0x00000000        0x0 /Applications/microchip/xc32/v1.32/bin/bin/../../lib/gcc/pic32mx/4.5.2/../../../../pic32mx/lib/libmchp_peripheral_32MX270F256D.a(int_tbl_lib.o)

.data%z154      0x00000000        0x0
 .data          0x00000000        0x0 /Applications/microchip/xc32/v1.32/bin/bin/../../lib/gcc/pic32mx/4.5.2/../../../../pic32mx/lib/libmchp_peripheral_32MX270F256D.a(int_tbl_lib.o)

.bss%z155       0x00000000        0x0
 .bss           0x00000000        0x0 /Applications/microchip/xc32/v1.32/bin/bin/../../lib/gcc/pic32mx/4.5.2/../../../../pic32mx/lib/libmchp_peripheral_32MX270F256D.a(int_restore_interrupts_lib.o)

.data%z156      0x00000000        0x0
 .data          0x00000000        0x0 /Applications/microchip/xc32/v1.32/bin/bin/../../lib/gcc/pic32mx/4.5.2/../../../../pic32mx/lib/libmchp_peripheral_32MX270F256D.a(int_restore_interrupts_lib.o)

.bss%z157       0x00000000        0x0
 .bss           0x00000000        0x0 /Applications/microchip/xc32/v1.32/bin/bin/../../lib/gcc/pic32mx/4.5.2/../../../../pic32mx/lib/libmchp_peripheral_32MX270F256D.a(int_disable_interrupts_lib.o)

.data%z158      0x00000000        0x0
 .data          0x00000000        0x0 /Applications/microchip/xc32/v1.32/bin/bin/../../lib/gcc/pic32mx/4.5.2/../../../../pic32mx/lib/libmchp_peripheral_32MX270F256D.a(int_disable_interrupts_lib.o)

.bss%z159       0x00000000        0x0
 .bss           0x00000000        0x0 /Applications/microchip/xc32/v1.32/bin/bin/../../lib/gcc/pic32mx/4.5.2/../../../../pic32mx/lib/libmchp_peripheral_32MX270F256D.a(int_enable_interrupts_lib.o)

.data%z160      0x00000000        0x0
 .data          0x00000000        0x0 /Applications/microchip/xc32/v1.32/bin/bin/../../lib/gcc/pic32mx/4.5.2/../../../../pic32mx/lib/libmchp_peripheral_32MX270F256D.a(int_enable_interrupts_lib.o)

.bss%z161       0x00000000        0x0
 .bss           0x00000000        0x0 /Applications/microchip/xc32/v1.32/bin/bin/../../lib/gcc/pic32mx/4.5.2/../../../../pic32mx/lib/libmchp_peripheral_32MX270F256D.a(int_configure_system_lib.o)

.data%z162      0x00000000        0x0
 .data          0x00000000        0x0 /Applications/microchip/xc32/v1.32/bin/bin/../../lib/gcc/pic32mx/4.5.2/../../../../pic32mx/lib/libmchp_peripheral_32MX270F256D.a(int_configure_system_lib.o)

.bss%z163       0x00000000        0x0
 .bss           0x00000000        0x0 /Applications/microchip/xc32/v1.32/bin/bin/../../lib/gcc/pic32mx/4.5.2/../../../../pic32mx/lib/./proc/32MX270F256D/processor.o

.data%z164      0x00000000        0x0
 .data          0x00000000        0x0 /Applications/microchip/xc32/v1.32/bin/bin/../../lib/gcc/pic32mx/4.5.2/../../../../pic32mx/lib/./proc/32MX270F256D/processor.o

.bss%z165       0x00000000        0x0
 .bss           0x00000000        0x0 /Applications/microchip/xc32/v1.32/bin/bin/../../lib/gcc/pic32mx/4.5.2/../../../../pic32mx/lib/pic32_software_reset.o

.data%z166      0x00000000        0x0
 .data          0x00000000        0x0 /Applications/microchip/xc32/v1.32/bin/bin/../../lib/gcc/pic32mx/4.5.2/../../../../pic32mx/lib/pic32_software_reset.o

.bss%z167       0x00000000        0x0
 .bss           0x00000000        0x0 /Applications/microchip/xc32/v1.32/bin/bin/../../lib/gcc/pic32mx/4.5.2/../../../../pic32mx/lib/./proc/32MX270F256D/default_isr_vectors.o

.data%z168      0x00000000        0x0
 .data          0x00000000        0x0 /Applications/microchip/xc32/v1.32/bin/bin/../../lib/gcc/pic32mx/4.5.2/../../../../pic32mx/lib/./proc/32MX270F256D/default_isr_vectors.o

.bss%z169       0x00000000        0x0
 .bss           0x00000000        0x0 build/EXPLORER_16_PIC32MX270F256D/production/_ext/809743516/ParTest_Explorer16.o

.data%z170      0x00000000        0x0
 .data          0x00000000        0x0 build/EXPLORER_16_PIC32MX270F256D/production/_ext/809743516/ParTest_Explorer16.o

.bss%z171       0x00000000        0x0
 .bss           0x00000000        0x0 build/EXPLORER_16_PIC32MX270F256D/production/_ext/1472/ConfigPerformance.o

.data%z172      0x00000000        0x0
 .data          0x00000000        0x0 build/EXPLORER_16_PIC32MX270F256D/production/_ext/1472/ConfigPerformance.o

.data%z173      0x00000000        0x0
 .data          0x00000000        0x0 build/EXPLORER_16_PIC32MX270F256D/production/_ext/1472/main_full.o

.bss%z174       0x00000000        0x0
 .bss           0x00000000        0x0 build/EXPLORER_16_PIC32MX270F256D/production/_ext/1472/main_blinky.o

.data%z175      0x00000000        0x0
 .data          0x00000000        0x0 build/EXPLORER_16_PIC32MX270F256D/production/_ext/1472/main_blinky.o

.bss%z176       0x00000000        0x0
 .bss           0x00000000        0x0 build/EXPLORER_16_PIC32MX270F256D/production/_ext/1472/printf-stdarg.o

.data%z177      0x00000000        0x0
 .data          0x00000000        0x0 build/EXPLORER_16_PIC32MX270F256D/production/_ext/1472/printf-stdarg.o

.bss%z178       0x00000000        0x0
 .bss           0x00000000        0x0 build/EXPLORER_16_PIC32MX270F256D/production/_ext/1472/IntQueueTimer_isr.o

.data%z179      0x00000000        0x0
 .data          0x00000000        0x0 build/EXPLORER_16_PIC32MX270F256D/production/_ext/1472/IntQueueTimer_isr.o

.bss%z180       0x00000000        0x0
 .bss           0x00000000        0x0 build/EXPLORER_16_PIC32MX270F256D/production/_ext/1472/IntQueueTimer.o

.data%z181      0x00000000        0x0
 .data          0x00000000        0x0 build/EXPLORER_16_PIC32MX270F256D/production/_ext/1472/IntQueueTimer.o

.bss%z182       0x00000000        0x0
 .bss           0x00000000        0x0 build/EXPLORER_16_PIC32MX270F256D/production/_ext/1472/timertest_isr.o

.data%z183      0x00000000        0x0
 .data          0x00000000        0x0 build/EXPLORER_16_PIC32MX270F256D/production/_ext/1472/timertest_isr.o

.bss%z184       0x00000000        0x0
 .bss           0x00000000        0x0 build/EXPLORER_16_PIC32MX270F256D/production/_ext/1472/timertest.o

.data%z185      0x00000000        0x0
 .data          0x00000000        0x0 build/EXPLORER_16_PIC32MX270F256D/production/_ext/1472/timertest.o

.bss%z186       0x00000000        0x0
 .bss           0x00000000        0x0 build/EXPLORER_16_PIC32MX270F256D/production/_ext/821501661/serial_isr.o

.data%z187      0x00000000        0x0
 .data          0x00000000        0x0 build/EXPLORER_16_PIC32MX270F256D/production/_ext/821501661/serial_isr.o

.bss%z188       0x00000000        0x0
 .bss           0x00000000        0x0 build/EXPLORER_16_PIC32MX270F256D/production/_ext/821501661/serial.o

.data%z189      0x00000000        0x0
 .data          0x00000000        0x0 build/EXPLORER_16_PIC32MX270F256D/production/_ext/821501661/serial.o

.bss%z190       0x00000000        0x0
 .bss           0x00000000        0x0 build/EXPLORER_16_PIC32MX270F256D/production/_ext/1472/lcd.o

.data%z191      0x00000000        0x0
 .data          0x00000000        0x0 build/EXPLORER_16_PIC32MX270F256D/production/_ext/1472/lcd.o

.bss%z192       0x00000000        0x0
 .bss           0x00000000        0x0 build/EXPLORER_16_PIC32MX270F256D/production/_ext/1472/RegisterTestTasks.o

.data%z193      0x00000000        0x0
 .data          0x00000000        0x0 build/EXPLORER_16_PIC32MX270F256D/production/_ext/1472/RegisterTestTasks.o

.bss%z194       0x00000000        0x0
 .bss           0x00000000        0x0 build/EXPLORER_16_PIC32MX270F256D/production/_ext/1472/main.o

.data%z195      0x00000000        0x0
 .data          0x00000000        0x0 build/EXPLORER_16_PIC32MX270F256D/production/_ext/1472/main.o

.bss%z196       0x00000000        0x0
 .bss           0x00000000        0x0 build/EXPLORER_16_PIC32MX270F256D/production/_ext/1163846883/flash_timer.o

.data%z197      0x00000000        0x0
 .data          0x00000000        0x0 build/EXPLORER_16_PIC32MX270F256D/production/_ext/1163846883/flash_timer.o

.bss%z198       0x00000000        0x0
 .bss           0x00000000        0x0 build/EXPLORER_16_PIC32MX270F256D/production/_ext/1163846883/GenQTest.o

.data%z199      0x00000000        0x0
 .data          0x00000000        0x0 build/EXPLORER_16_PIC32MX270F256D/production/_ext/1163846883/GenQTest.o

.data%z200      0x00000000        0x0
 .data          0x00000000        0x0 build/EXPLORER_16_PIC32MX270F256D/production/_ext/1163846883/IntQueue.o

.bss%z201       0x00000000        0x0
 .bss           0x00000000        0x0 build/EXPLORER_16_PIC32MX270F256D/production/_ext/1163846883/QPeek.o

.data%z202      0x00000000        0x0
 .data          0x00000000        0x0 build/EXPLORER_16_PIC32MX270F256D/production/_ext/1163846883/QPeek.o

.bss%z203       0x00000000        0x0
 .bss           0x00000000        0x0 build/EXPLORER_16_PIC32MX270F256D/production/_ext/1163846883/semtest.o

.data%z204      0x00000000        0x0
 .data          0x00000000        0x0 build/EXPLORER_16_PIC32MX270F256D/production/_ext/1163846883/semtest.o

.bss%z205       0x00000000        0x0
 .bss           0x00000000        0x0 build/EXPLORER_16_PIC32MX270F256D/production/_ext/1163846883/comtest.o

.data%z206      0x00000000        0x0
 .data          0x00000000        0x0 build/EXPLORER_16_PIC32MX270F256D/production/_ext/1163846883/comtest.o

.bss%z207       0x00000000        0x0
 .bss           0x00000000        0x0 build/EXPLORER_16_PIC32MX270F256D/production/_ext/1163846883/blocktim.o

.data%z208      0x00000000        0x0
 .data          0x00000000        0x0 build/EXPLORER_16_PIC32MX270F256D/production/_ext/1163846883/blocktim.o

.data%z209      0x00000000        0x0
 .data          0x00000000        0x0 build/EXPLORER_16_PIC32MX270F256D/production/_ext/1884096877/heap_4.o

.data%z210      0x00000000        0x0
 .data          0x00000000        0x0 build/EXPLORER_16_PIC32MX270F256D/production/_ext/449926602/timers.o

.bss%z211       0x00000000        0x0
 .bss           0x00000000        0x0 build/EXPLORER_16_PIC32MX270F256D/production/_ext/449926602/list.o

.data%z212      0x00000000        0x0
 .data          0x00000000        0x0 build/EXPLORER_16_PIC32MX270F256D/production/_ext/449926602/list.o

.data%z213      0x00000000        0x0
 .data          0x00000000        0x0 build/EXPLORER_16_PIC32MX270F256D/production/_ext/449926602/tasks.o

.bss%z214       0x00000000        0x0
 .bss           0x00000000        0x0 build/EXPLORER_16_PIC32MX270F256D/production/_ext/449926602/queue.o

.data%z215      0x00000000        0x0
 .data          0x00000000        0x0 build/EXPLORER_16_PIC32MX270F256D/production/_ext/449926602/queue.o

.bss%z216       0x00000000        0x0
 .bss           0x00000000        0x0 build/EXPLORER_16_PIC32MX270F256D/production/_ext/332309696/port_asm.o

.data%z217      0x00000000        0x0
 .data          0x00000000        0x0 build/EXPLORER_16_PIC32MX270F256D/production/_ext/332309696/port_asm.o

.data%z218      0x00000000        0x0
 .data          0x00000000        0x0 build/EXPLORER_16_PIC32MX270F256D/production/_ext/332309696/port.o

.bss%z219       0x00000000        0x0
 .bss           0x00000000        0x0 /Applications/microchip/xc32/v1.32/bin/bin/../../lib/gcc/pic32mx/4.5.2/../../../../pic32mx/lib/debug-exception-return.o

.data%z220      0x00000000        0x0
 .data          0x00000000        0x0 /Applications/microchip/xc32/v1.32/bin/bin/../../lib/gcc/pic32mx/4.5.2/../../../../pic32mx/lib/debug-exception-return.o

.bss%z221       0x00000000        0x0
 .bss           0x00000000        0x0 /Applications/microchip/xc32/v1.32/bin/bin/../../lib/gcc/pic32mx/4.5.2/../../../../pic32mx/lib/./proc/32MX270F256D/crt0_mips32r2.o

.data%z222      0x00000000        0x0
 .data          0x00000000        0x0 /Applications/microchip/xc32/v1.32/bin/bin/../../lib/gcc/pic32mx/4.5.2/../../../../pic32mx/lib/./proc/32MX270F256D/crt0_mips32r2.o

._debug_exception
                0xbfc00480       0x2c
 ._debug_exception
                0xbfc00480       0x2c /Applications/microchip/xc32/v1.32/bin/bin/../../lib/gcc/pic32mx/4.5.2/../../../../pic32mx/lib/debug-exception-return.o
                0xbfc00480                __DbgExecReturn

.text           0x9d000000     0x4248
 .text          0x9d000000     0x2368 build/EXPLORER_16_PIC32MX270F256D/production/_ext/449926602/tasks.o
                0x9d00010c                uxTaskPriorityGetFromISR
                0x9d000148                xTaskResumeFromISR
                0x9d00023c                vTaskEndScheduler
                0x9d000284                vTaskSuspendAll
                0x9d000298                xTaskGetTickCount
                0x9d0002a4                xTaskGetTickCountFromISR
                0x9d0002b0                uxTaskGetNumberOfTasks
                0x9d0002bc                xTaskIncrementTick
                0x9d000474                vTaskSwitchContext
                0x9d0005a8                vTaskPlaceOnEventList
                0x9d000660                vTaskPlaceOnUnorderedEventList
                0x9d000750                vTaskPlaceOnEventListRestricted
                0x9d000814                xTaskRemoveFromEventList
                0x9d0008e8                xTaskRemoveFromUnorderedEventList
                0x9d0009c0                vTaskSetTimeOutState
                0x9d000a04                vTaskMissedYield
                0x9d000a14                uxTaskGetStackHighWaterMark
                0x9d000a50                xTaskGetCurrentTaskHandle
                0x9d000a5c                xTaskGetSchedulerState
                0x9d000a7c                vTaskPriorityInherit
                0x9d000ba8                xTaskPriorityDisinherit
                0x9d000cd0                vTaskEnterCritical
                0x9d000d54                vTaskExitCritical
                0x9d000db0                xTaskCheckForTimeOut
                0x9d000e7c                xTaskResumeAll
                0x9d000ff4                vTaskDelay
                0x9d0010a0                vTaskDelayUntil
                0x9d001270                vTaskResume
                0x9d001350                vTaskSuspend
                0x9d0014a0                vTaskPrioritySet
                0x9d001618                uxTaskPriorityGet
                0x9d001650                eTaskGetState
                0x9d001708                vTaskDelete
                0x9d001830                xTaskGenericCreate
                0x9d001b3c                vTaskStartScheduler
                0x9d001c04                uxTaskResetEventItemValue
                0x9d001c28                pvTaskIncrementMutexHeldCount
                0x9d001c50                ulTaskNotifyTake
                0x9d001d78                xTaskNotifyWait
                0x9d001ed8                xTaskGenericNotify
                0x9d002074                xTaskGenericNotifyFromISR
                0x9d002240                vTaskNotifyGiveFromISR
 .text          0x9d002368     0x118c build/EXPLORER_16_PIC32MX270F256D/production/_ext/449926602/queue.o
                0x9d0025b4                xQueueGenericReset
                0x9d002694                xQueueGenericCreate
                0x9d002740                xQueueCreateCountingSemaphore
                0x9d0027d4                xQueueGenericSend
                0x9d002a64                xQueueGiveMutexRecursive
                0x9d002ae0                xQueueCreateMutex
                0x9d002b78                xQueueGenericSendFromISR
                0x9d002cb4                xQueueGiveFromISR
                0x9d002dc8                xQueueGenericReceive
                0x9d00307c                xQueueTakeMutexRecursive
                0x9d003110                xQueueReceiveFromISR
                0x9d003214                xQueuePeekFromISR
                0x9d0032d8                uxQueueMessagesWaiting
                0x9d003324                uxQueueSpacesAvailable
                0x9d00337c                uxQueueMessagesWaitingFromISR
                0x9d0033b4                vQueueDelete
                0x9d0033f0                xQueueIsQueueEmptyFromISR
                0x9d00342c                xQueueIsQueueFullFromISR
                0x9d003470                vQueueWaitForMessageRestricted
 .text          0x9d0034f4      0xd54 build/EXPLORER_16_PIC32MX270F256D/production/_ext/1163846883/IntQueue.o
                0x9d003b70                vStartInterruptQueueTasks
                0x9d003cd4                xFirstTimerHandler
                0x9d003eac                xSecondTimerHandler
                0x9d0041b8                xAreIntQueueTasksStillRunning

.text._vfprintf_cdnopuxX
                0x9d004248      0xae8
 .text._vfprintf_cdnopuxX
                0x9d004248      0xae8 /Applications/microchip/xc32/v1.32/bin/bin/../../lib/gcc/pic32mx/4.5.2/../../../../pic32mx/lib/libc.a(doprnt_cdnopuxX.eo)
                0x9d004248                _vfprintf_cdnopuxX

.text           0x9d004d30     0x1bb4
 .text          0x9d004d30      0x8a0 build/EXPLORER_16_PIC32MX270F256D/production/_ext/1163846883/GenQTest.o
                0x9d00548c                vStartGenericQueueTasks
                0x9d005588                xAreGenericQueueTasksStillRunning
 .text          0x9d0055d0      0x748 build/EXPLORER_16_PIC32MX270F256D/production/_ext/449926602/timers.o
                0x9d0056cc                xTimerCreateTimerTask
                0x9d00574c                xTimerCreate
                0x9d0057f4                xTimerGenericCommand
                0x9d005c44                pcTimerGetTimerName
                0x9d005c4c                xTimerIsTimerActive
                0x9d005c80                pvTimerGetTimerID
                0x9d005cc8                vTimerSetTimerID
 .text          0x9d005d18      0x5f0 build/EXPLORER_16_PIC32MX270F256D/production/_ext/1472/RegisterTestTasks.o
                0x9d005d20                vRegTest1
                0x9d006014                vRegTest2
 .text          0x9d006308      0x5dc build/EXPLORER_16_PIC32MX270F256D/production/_ext/1472/printf-stdarg.o
                0x9d006844                _printf_0
                0x9d0068a8                _snprintf_0
                0x9d0068dc                write

.rodata         0x9d0068e4      0x558
 .rodata        0x9d0068e4      0x558 /Applications/microchip/xc32/v1.32/bin/bin/../../lib/gcc/pic32mx/4.5.2/../../../../pic32mx/lib/libmchp_peripheral_32MX270F256D.a(int_tbl_lib.o)
                0x9d0068e4                __IntSrcTbl
                0x9d006c2c                __IntVectorTbl

.text           0x9d006e3c     0x2a60
 .text          0x9d006e3c      0x508 build/EXPLORER_16_PIC32MX270F256D/production/_ext/1163846883/blocktim.o
                0x9d007274                vCreateBlockTimeTasks
                0x9d007300                xAreBlockTimeTestTasksStillRunning
 .text          0x9d007344      0x4e0 build/EXPLORER_16_PIC32MX270F256D/production/_ext/1163846883/QPeek.o
                0x9d007700                vStartQueuePeekTasks
                0x9d0077f8                xAreQueuePeekTasksStillRunning
 .text          0x9d007824      0x45c /Applications/microchip/xc32/v1.32/bin/bin/../../lib/gcc/pic32mx/4.5.2/libgcc.a(_umoddi3.o)
                0x9d007824                __umoddi3
 .text          0x9d007c80      0x454 build/EXPLORER_16_PIC32MX270F256D/production/_ext/332309696/port_asm.o
                0x9d007c80                vPortTickInterruptHandler
                0x9d007e2c                vPortStartFirstTask
                0x9d007ef4                vPortYieldISR
 .text          0x9d0080d4      0x44c /Applications/microchip/xc32/v1.32/bin/bin/../../lib/gcc/pic32mx/4.5.2/libgcc.a(_udivdi3.o)
                0x9d0080d4                __udivdi3
 .text          0x9d008520      0x3c8 build/EXPLORER_16_PIC32MX270F256D/production/_ext/821501661/serial.o
                0x9d008520                xSerialGetChar
                0x9d008544                xSerialPutChar
                0x9d00859c                xSerialPortInitMinimal
                0x9d0087b8                vSerialClose
                0x9d0087c0                vU1InterruptHandler
 .text          0x9d0088e8      0x358 build/EXPLORER_16_PIC32MX270F256D/production/_ext/1472/IntQueueTimer_isr.o
                0x9d0088e8                vT3InterruptWrapper
                0x9d008a94                vT4InterruptWrapper
 .text          0x9d008c40      0x350 build/EXPLORER_16_PIC32MX270F256D/production/_ext/1472/main_full.o
                0x9d008e38                main_full
 .text          0x9d008f90      0x34c build/EXPLORER_16_PIC32MX270F256D/production/_ext/1884096877/heap_4.o
                0x9d009008                pvPortMalloc
                0x9d009208                vPortFree
                0x9d0092c4                xPortGetFreeHeapSize
                0x9d0092cc                xPortGetMinimumEverFreeHeapSize
                0x9d0092d4                vPortInitialiseBlocks
 .text          0x9d0092dc      0x34c build/EXPLORER_16_PIC32MX270F256D/production/_ext/1163846883/semtest.o
                0x9d009440                vStartSemaphoreTasks
                0x9d0095d4                xAreSemaphoreTasksStillRunning
 .text          0x9d009628      0x274 build/EXPLORER_16_PIC32MX270F256D/production/_ext/332309696/port.o
                0x9d009678                pxPortInitialiseStack
                0x9d0096bc                vApplicationSetupTickTimerInterrupt
                0x9d009728                vPortEndScheduler
                0x9d009758                xPortStartScheduler
                0x9d0097d8                uxPortSetInterruptMaskFromISR
                0x9d009808                vPortClearInterruptMaskFromISR
                0x9d009818                vPortIncrementTick

.dinit          0x9d00989c      0x260
 .dinit         0x9d00989c      0x260 data_init

.text           0x9d009afc      0xa80
 .text          0x9d009afc      0x210 build/EXPLORER_16_PIC32MX270F256D/production/_ext/1163846883/comtest.o
                0x9d009c70                vAltStartComTestTasks
                0x9d009cfc                xAreComTestTasksStillRunning
 .text          0x9d009d0c      0x1e8 build/EXPLORER_16_PIC32MX270F256D/production/_ext/1472/lcd.o
                0x9d009e98                xStartLCDTask
 .text          0x9d009ef4      0x1c8 build/EXPLORER_16_PIC32MX270F256D/production/_ext/1472/main_blinky.o
                0x9d009fc4                main_blinky
 .text          0x9d00a0bc      0x1ac build/EXPLORER_16_PIC32MX270F256D/production/_ext/821501661/serial_isr.o
                0x9d00a0bc                vU1InterruptWrapper
 .text          0x9d00a268      0x1ac build/EXPLORER_16_PIC32MX270F256D/production/_ext/1472/timertest_isr.o
                0x9d00a268                vT2InterruptWrapper
 .text          0x9d00a414      0x168 /Applications/microchip/xc32/v1.32/bin/bin/../../lib/gcc/pic32mx/4.5.2/../../../../pic32mx/lib/libpic32.a(memcpy.o)
                0x9d00a414                memcpy

.text.fputc     0x9d00a57c      0x15c
 .text.fputc    0x9d00a57c      0x15c /Applications/microchip/xc32/v1.32/bin/bin/../../lib/gcc/pic32mx/4.5.2/../../../../pic32mx/lib/libc.a(_fputc_simple.o)
                0x9d00a57c                fputc

.text           0x9d00a6d8      0x144
 .text          0x9d00a6d8      0x144 build/EXPLORER_16_PIC32MX270F256D/production/_ext/1472/IntQueueTimer.o
                0x9d00a6d8                vInitialiseTimerForIntQueueTest
                0x9d00a79c                vT3InterruptHandler
                0x9d00a7dc                vT4InterruptHandler

.text._flsbuf   0x9d00a81c      0x12c
 .text._flsbuf  0x9d00a81c      0x12c /Applications/microchip/xc32/v1.32/bin/bin/../../lib/gcc/pic32mx/4.5.2/../../../../pic32mx/lib/libc.a(_flsbuf_simple.o)
                0x9d00a81c                _flsbuf

.text           0x9d00a948      0x128
 .text          0x9d00a948      0x128 build/EXPLORER_16_PIC32MX270F256D/production/_ext/1472/main.o
                0x9d00a948                main
                0x9d00a9c4                vApplicationMallocFailedHook
                0x9d00a9f4                vApplicationIdleHook
                0x9d00a9fc                vApplicationStackOverflowHook
                0x9d00aa2c                vApplicationTickHook
                0x9d00aa34                _general_exception_handler
                0x9d00aa3c                vAssertCalled

.rodata         0x9d00aa70      0x104
 .rodata        0x9d00aa70      0x104 /Applications/microchip/xc32/v1.32/bin/bin/../../lib/gcc/pic32mx/4.5.2/../../../../pic32mx/lib/libc.a(ctype.o)
                0x9d00aa70                _ctype

.text           0x9d00ab74       0xf0
 .text          0x9d00ab74       0xf0 build/EXPLORER_16_PIC32MX270F256D/production/_ext/449926602/list.o
                0x9d00ab74                vListInitialise
                0x9d00ab94                vListInitialiseItem
                0x9d00ab9c                vListInsertEnd
                0x9d00abcc                vListInsert
                0x9d00ac20                uxListRemove

.text.general_exception
                0x9d00ac64       0xdc
 .text.general_exception
                0x9d00ac64       0xdc /Applications/microchip/xc32/v1.32/bin/bin/../../lib/gcc/pic32mx/4.5.2/../../../../pic32mx/lib/libpic32.a(general-exception.o)
                0x9d00ac64                _general_exception_context

.text           0x9d00ad40       0xd4
 .text          0x9d00ad40       0xd4 build/EXPLORER_16_PIC32MX270F256D/production/_ext/1163846883/flash_timer.o
                0x9d00ad64                vStartLEDFlashTimers

.rodata         0x9d00ae18       0xd0
 .rodata        0x9d00ae18       0xd0 /Applications/microchip/xc32/v1.32/bin/bin/../../lib/gcc/pic32mx/4.5.2/../../../../pic32mx/lib/libc.a(doprnt_cdnopuxX.eo)

.text           0x9d00aee8       0xc8
 .text          0x9d00aee8       0xc8 build/EXPLORER_16_PIC32MX270F256D/production/_ext/1472/timertest.o
                0x9d00aee8                vSetupTimerTest
                0x9d00af74                vT2InterruptHandler

.rodata         0x9d00afb0       0xc8
 .rodata        0x9d00afb0       0xc8 build/EXPLORER_16_PIC32MX270F256D/production/_ext/1472/main_full.o

.text           0x9d00b078      0x1d4
 .text          0x9d00b078       0xa8 /Applications/microchip/xc32/v1.32/bin/bin/../../lib/gcc/pic32mx/4.5.2/../../../../pic32mx/lib/libpic32.a(memset.o)
                0x9d00b078                memset
 .text          0x9d00b120       0x98 /Applications/microchip/xc32/v1.32/bin/bin/../../lib/gcc/pic32mx/4.5.2/../../../../pic32mx/lib/libpic32.a(memcmp.o)
                0x9d00b120                memcmp
 .text          0x9d00b1b8       0x94 build/EXPLORER_16_PIC32MX270F256D/production/_ext/1472/ConfigPerformance.o
                0x9d00b1b8                vHardwareConfigurePerformance
                0x9d00b1c0                vHardwareUseMultiVectoredInterrupts

.text.UARTSetDataRate
                0x9d00b24c       0x90
 .text.UARTSetDataRate
                0x9d00b24c       0x90 /Applications/microchip/xc32/v1.32/bin/bin/../../lib/gcc/pic32mx/4.5.2/../../../../pic32mx/lib/libmchp_peripheral_32MX270F256D.a(uart_lib.o)
                0x9d00b24c                UARTSetDataRate

.text.UARTEnable
                0x9d00b2dc       0x80
 .text.UARTEnable
                0x9d00b2dc       0x80 /Applications/microchip/xc32/v1.32/bin/bin/../../lib/gcc/pic32mx/4.5.2/../../../../pic32mx/lib/libmchp_peripheral_32MX270F256D.a(uart_lib.o)
                0x9d00b2dc                UARTEnable

.text           0x9d00b35c       0x6c
 .text          0x9d00b35c       0x6c build/EXPLORER_16_PIC32MX270F256D/production/_ext/809743516/ParTest_Explorer16.o
                0x9d00b35c                vParTestInitialise
                0x9d00b384                vParTestSetLED
                0x9d00b3b0                vParTestToggleLED

.text._sprintf_cdnopuxX
                0x9d00b3c8       0x68
 .text._sprintf_cdnopuxX
                0x9d00b3c8       0x68 /Applications/microchip/xc32/v1.32/bin/bin/../../lib/gcc/pic32mx/4.5.2/../../../../pic32mx/lib/libc.a(sprintf_cdnopuxX.eo)
                0x9d00b3c8                _sprintf_cdnopuxX
                0x9d00b3c8                _sprintf_0

.text.UARTGetDataRate
                0x9d00b430       0x5c
 .text.UARTGetDataRate
                0x9d00b430       0x5c /Applications/microchip/xc32/v1.32/bin/bin/../../lib/gcc/pic32mx/4.5.2/../../../../pic32mx/lib/libmchp_peripheral_32MX270F256D.a(uart_lib.o)
                0x9d00b430                UARTGetDataRate

.text.INTEnable
                0x9d00b48c       0x58
 .text.INTEnable
                0x9d00b48c       0x58 /Applications/microchip/xc32/v1.32/bin/bin/../../lib/gcc/pic32mx/4.5.2/../../../../pic32mx/lib/libmchp_peripheral_32MX270F256D.a(int_tbl_lib.o)
                0x9d00b48c                INTEnable

.text.main_entry
                0x9d00b4e4       0x4c
 .text.main_entry
                0x9d00b4e4       0x4c /Applications/microchip/xc32/v1.32/bin/bin/../../lib/gcc/pic32mx/4.5.2/../../../../pic32mx/lib/./proc/32MX270F256D/crt0_mips32r2.o
                0x9d00b510                __crt0_exit

.rodata         0x9d00b530       0x48
 .rodata        0x9d00b530       0x48 build/EXPLORER_16_PIC32MX270F256D/production/_ext/332309696/port.o
                0x9d00b560                xISRStackTop

.text._bootstrap_exception_handler
                0x9d00b578       0x48
 .text._bootstrap_exception_handler
                0x9d00b578       0x48 /Applications/microchip/xc32/v1.32/bin/bin/../../lib/gcc/pic32mx/4.5.2/../../../../pic32mx/lib/libpic32.a(default-bootstrap-exception-handler.o)
                0x9d00b578                _bootstrap_exception_handler

.text           0x9d00b5c0       0x44
 .text          0x9d00b5c0       0x44 /Applications/microchip/xc32/v1.32/bin/bin/../../lib/gcc/pic32mx/4.5.2/../../../../pic32mx/lib/pic32_software_reset.o
                0x9d00b5c0                __pic32_software_reset

.rodata         0x9d00b604       0x40
 .rodata        0x9d00b604       0x40 build/EXPLORER_16_PIC32MX270F256D/production/_ext/1163846883/GenQTest.o

.text.INTSetVectorPriority
                0x9d00b644       0x3c
 .text.INTSetVectorPriority
                0x9d00b644       0x3c /Applications/microchip/xc32/v1.32/bin/bin/../../lib/gcc/pic32mx/4.5.2/../../../../pic32mx/lib/libmchp_peripheral_32MX270F256D.a(int_tbl_lib.o)
                0x9d00b644                INTSetVectorPriority

.text.INTSetVectorSubPriority
                0x9d00b680       0x3c
 .text.INTSetVectorSubPriority
                0x9d00b680       0x3c /Applications/microchip/xc32/v1.32/bin/bin/../../lib/gcc/pic32mx/4.5.2/../../../../pic32mx/lib/libmchp_peripheral_32MX270F256D.a(int_tbl_lib.o)
                0x9d00b680                INTSetVectorSubPriority

.text.UARTConfigure
                0x9d00b6bc       0x3c
 .text.UARTConfigure
                0x9d00b6bc       0x3c /Applications/microchip/xc32/v1.32/bin/bin/../../lib/gcc/pic32mx/4.5.2/../../../../pic32mx/lib/libmchp_peripheral_32MX270F256D.a(uart_lib.o)
                0x9d00b6bc                UARTConfigure

.text.UARTSetAddress
                0x9d00b6f8       0x3c
 .text.UARTSetAddress
                0x9d00b6f8       0x3c /Applications/microchip/xc32/v1.32/bin/bin/../../lib/gcc/pic32mx/4.5.2/../../../../pic32mx/lib/libmchp_peripheral_32MX270F256D.a(uart_lib.o)
                0x9d00b6f8                UARTSetAddress

.text.UARTWatchForAddress
                0x9d00b734       0x38
 .text.UARTWatchForAddress
                0x9d00b734       0x38 /Applications/microchip/xc32/v1.32/bin/bin/../../lib/gcc/pic32mx/4.5.2/../../../../pic32mx/lib/libmchp_peripheral_32MX270F256D.a(uart_lib.o)
                0x9d00b734                UARTWatchForAddress

.vector_default
                0x9d00b76c       0x38
 .vector_default
                0x9d00b76c       0x38 /Applications/microchip/xc32/v1.32/bin/bin/../../lib/gcc/pic32mx/4.5.2/../../../../pic32mx/lib/libpic32.a(defaultinterrupt.o)
                0x9d00b76c                _DefaultInterrupt

.rodata         0x9d00b7a4       0x64
 .rodata        0x9d00b7a4       0x34 build/EXPLORER_16_PIC32MX270F256D/production/_ext/449926602/tasks.o
 .rodata        0x9d00b7d8       0x30 build/EXPLORER_16_PIC32MX270F256D/production/_ext/1163846883/IntQueue.o

.text.INTConfigureSystem
                0x9d00b808       0x30
 .text.INTConfigureSystem
                0x9d00b808       0x30 /Applications/microchip/xc32/v1.32/bin/bin/../../lib/gcc/pic32mx/4.5.2/../../../../pic32mx/lib/libmchp_peripheral_32MX270F256D.a(int_configure_system_lib.o)
                0x9d00b808                INTConfigureSystem

.text.INTGetVectorPriority
                0x9d00b838       0x30
 .text.INTGetVectorPriority
                0x9d00b838       0x30 /Applications/microchip/xc32/v1.32/bin/bin/../../lib/gcc/pic32mx/4.5.2/../../../../pic32mx/lib/libmchp_peripheral_32MX270F256D.a(int_tbl_lib.o)
                0x9d00b838                INTGetVectorPriority

.text.INTGetVectorSubPriority
                0x9d00b868       0x30
 .text.INTGetVectorSubPriority
                0x9d00b868       0x30 /Applications/microchip/xc32/v1.32/bin/bin/../../lib/gcc/pic32mx/4.5.2/../../../../pic32mx/lib/libmchp_peripheral_32MX270F256D.a(int_tbl_lib.o)
                0x9d00b868                INTGetVectorSubPriority

.rodata         0x9d00b898       0x2c
 .rodata        0x9d00b898       0x2c build/EXPLORER_16_PIC32MX270F256D/production/_ext/1884096877/heap_4.o

.text.INTClearFlag
                0x9d00b8c4       0x2c
 .text.INTClearFlag
                0x9d00b8c4       0x2c /Applications/microchip/xc32/v1.32/bin/bin/../../lib/gcc/pic32mx/4.5.2/../../../../pic32mx/lib/libmchp_peripheral_32MX270F256D.a(int_tbl_lib.o)
                0x9d00b8c4                INTClearFlag

.text.INTSetFlag
                0x9d00b8f0       0x2c
 .text.INTSetFlag
                0x9d00b8f0       0x2c /Applications/microchip/xc32/v1.32/bin/bin/../../lib/gcc/pic32mx/4.5.2/../../../../pic32mx/lib/libmchp_peripheral_32MX270F256D.a(int_tbl_lib.o)
                0x9d00b8f0                INTSetFlag

.text.INTGetFlag
                0x9d00b91c       0x2c
 .text.INTGetFlag
                0x9d00b91c       0x2c /Applications/microchip/xc32/v1.32/bin/bin/../../lib/gcc/pic32mx/4.5.2/../../../../pic32mx/lib/libmchp_peripheral_32MX270F256D.a(int_tbl_lib.o)
                0x9d00b91c                INTGetFlag

.text.INTGetEnable
                0x9d00b948       0x2c
 .text.INTGetEnable
                0x9d00b948       0x2c /Applications/microchip/xc32/v1.32/bin/bin/../../lib/gcc/pic32mx/4.5.2/../../../../pic32mx/lib/libmchp_peripheral_32MX270F256D.a(int_tbl_lib.o)
                0x9d00b948                INTGetEnable

.text.UARTSetFifoMode
                0x9d00b974       0x28
 .text.UARTSetFifoMode
                0x9d00b974       0x28 /Applications/microchip/xc32/v1.32/bin/bin/../../lib/gcc/pic32mx/4.5.2/../../../../pic32mx/lib/libmchp_peripheral_32MX270F256D.a(uart_lib.o)
                0x9d00b974                UARTSetFifoMode

.text.UARTSetLineControl
                0x9d00b99c       0x28
 .text.UARTSetLineControl
                0x9d00b99c       0x28 /Applications/microchip/xc32/v1.32/bin/bin/../../lib/gcc/pic32mx/4.5.2/../../../../pic32mx/lib/libmchp_peripheral_32MX270F256D.a(uart_lib.o)
                0x9d00b99c                UARTSetLineControl

.rodata         0x9d00b9c4       0x88
 .rodata        0x9d00b9c4       0x24 build/EXPLORER_16_PIC32MX270F256D/production/_ext/449926602/timers.o
 .rodata        0x9d00b9e8       0x24 build/EXPLORER_16_PIC32MX270F256D/production/_ext/1472/main_blinky.o
 .rodata        0x9d00ba0c       0x20 build/EXPLORER_16_PIC32MX270F256D/production/_ext/1163846883/semtest.o
 .rodata        0x9d00ba2c       0x20 build/EXPLORER_16_PIC32MX270F256D/production/_ext/1163846883/QPeek.o

.text.putchar   0x9d00ba4c       0x20
 .text.putchar  0x9d00ba4c       0x20 /Applications/microchip/xc32/v1.32/bin/bin/../../lib/gcc/pic32mx/4.5.2/../../../../pic32mx/lib/libc.a(putchar.o)
                0x9d00ba4c                putchar

.text.INTRestoreInterrupts
                0x9d00ba6c       0x1c
 .text.INTRestoreInterrupts
                0x9d00ba6c       0x1c /Applications/microchip/xc32/v1.32/bin/bin/../../lib/gcc/pic32mx/4.5.2/../../../../pic32mx/lib/libmchp_peripheral_32MX270F256D.a(int_restore_interrupts_lib.o)
                0x9d00ba6c                INTRestoreInterrupts

.rodata         0x9d00ba88       0x30
 .rodata        0x9d00ba88       0x18 build/EXPLORER_16_PIC32MX270F256D/production/_ext/449926602/queue.o
 .rodata        0x9d00baa0       0x18 build/EXPLORER_16_PIC32MX270F256D/production/_ext/1472/lcd.o

.text           0x9d00bab8       0x18
 .text          0x9d00bab8       0x18 /Applications/microchip/xc32/v1.32/bin/bin/../../lib/gcc/pic32mx/4.5.2/../../../../pic32mx/lib/libpic32.a(default-nmi-handler.o)
                0x9d00bab8                _nmi_handler

.rodata         0x9d00bad0       0x30
 .rodata        0x9d00bad0       0x10 build/EXPLORER_16_PIC32MX270F256D/production/_ext/1163846883/blocktim.o
 .rodata        0x9d00bae0       0x10 build/EXPLORER_16_PIC32MX270F256D/production/_ext/1163846883/comtest.o
 .rodata        0x9d00baf0        0x8 build/EXPLORER_16_PIC32MX270F256D/production/_ext/1163846883/flash_timer.o
 .rodata        0x9d00baf8        0x8 build/EXPLORER_16_PIC32MX270F256D/production/_ext/1472/printf-stdarg.o

.text.INTEnableInterrupts
                0x9d00bb00        0x8
 .text.INTEnableInterrupts
                0x9d00bb00        0x8 /Applications/microchip/xc32/v1.32/bin/bin/../../lib/gcc/pic32mx/4.5.2/../../../../pic32mx/lib/libmchp_peripheral_32MX270F256D.a(int_enable_interrupts_lib.o)
                0x9d00bb00                INTEnableInterrupts

.text.INTDisableInterrupts
                0x9d00bb08        0x8
 .text.INTDisableInterrupts
                0x9d00bb08        0x8 /Applications/microchip/xc32/v1.32/bin/bin/../../lib/gcc/pic32mx/4.5.2/../../../../pic32mx/lib/libmchp_peripheral_32MX270F256D.a(int_disable_interrupts_lib.o)
                0x9d00bb08                INTDisableInterrupts

.rodata         0x9d00bb10        0x8
 .rodata        0x9d00bb10        0x8 /Applications/microchip/xc32/v1.32/bin/bin/../../lib/gcc/pic32mx/4.5.2/../../../../pic32mx/lib/libmchp_peripheral_32MX270F256D.a(uart_lib.o)
                0x9d00bb10                uartReg

.text._on_reset
                0x9d00bb18        0x8
 .text._on_reset
                0x9d00bb18        0x8 /Applications/microchip/xc32/v1.32/bin/bin/../../lib/gcc/pic32mx/4.5.2/../../../../pic32mx/lib/libpic32.a(default-on-reset.o)
                0x9d00bb18                _on_reset

.text._on_bootstrap
                0x9d00bb20        0x8
 .text._on_bootstrap
                0x9d00bb20        0x8 /Applications/microchip/xc32/v1.32/bin/bin/../../lib/gcc/pic32mx/4.5.2/../../../../pic32mx/lib/libpic32.a(default-on-bootstrap.o)
                0x9d00bb20                _on_bootstrap

.text%z223      0x00000000        0x0
 .text          0x00000000        0x0 /Applications/microchip/xc32/v1.32/bin/bin/../../lib/gcc/pic32mx/4.5.2/../../../../pic32mx/lib/libc.a(ctype.o)

.text%z224      0x00000000        0x0
 .text          0x00000000        0x0 /Applications/microchip/xc32/v1.32/bin/bin/../../lib/gcc/pic32mx/4.5.2/../../../../pic32mx/lib/libc.a(_flsbuf_simple.o)

.text%z225      0x00000000        0x0
 .text          0x00000000        0x0 /Applications/microchip/xc32/v1.32/bin/bin/../../lib/gcc/pic32mx/4.5.2/../../../../pic32mx/lib/libc.a(doprnt_cdnopuxX.eo)

.text%z226      0x00000000        0x0
 .text          0x00000000        0x0 /Applications/microchip/xc32/v1.32/bin/bin/../../lib/gcc/pic32mx/4.5.2/../../../../pic32mx/lib/libc.a(_fputc_simple.o)

.text%z227      0x00000000        0x0
 .text          0x00000000        0x0 /Applications/microchip/xc32/v1.32/bin/bin/../../lib/gcc/pic32mx/4.5.2/../../../../pic32mx/lib/libc.a(_iob.o)

.text%z228      0x00000000        0x0
 .text          0x00000000        0x0 /Applications/microchip/xc32/v1.32/bin/bin/../../lib/gcc/pic32mx/4.5.2/../../../../pic32mx/lib/libc.a(sprintf_cdnopuxX.eo)

.text%z229      0x00000000        0x0
 .text          0x00000000        0x0 /Applications/microchip/xc32/v1.32/bin/bin/../../lib/gcc/pic32mx/4.5.2/../../../../pic32mx/lib/libc.a(putchar.o)

.text%z230      0x00000000        0x0
 .text          0x00000000        0x0 /Applications/microchip/xc32/v1.32/bin/bin/../../lib/gcc/pic32mx/4.5.2/../../../../pic32mx/lib/libpic32.a(defaultinterrupt.o)

.text%z231      0x00000000        0x0
 .text          0x00000000        0x0 /Applications/microchip/xc32/v1.32/bin/bin/../../lib/gcc/pic32mx/4.5.2/../../../../pic32mx/lib/libpic32.a(vector63.o)

.text%z232      0x00000000        0x0
 .text          0x00000000        0x0 /Applications/microchip/xc32/v1.32/bin/bin/../../lib/gcc/pic32mx/4.5.2/../../../../pic32mx/lib/libpic32.a(vector62.o)

.text%z233      0x00000000        0x0
 .text          0x00000000        0x0 /Applications/microchip/xc32/v1.32/bin/bin/../../lib/gcc/pic32mx/4.5.2/../../../../pic32mx/lib/libpic32.a(vector61.o)

.text%z234      0x00000000        0x0
 .text          0x00000000        0x0 /Applications/microchip/xc32/v1.32/bin/bin/../../lib/gcc/pic32mx/4.5.2/../../../../pic32mx/lib/libpic32.a(vector60.o)

.text%z235      0x00000000        0x0
 .text          0x00000000        0x0 /Applications/microchip/xc32/v1.32/bin/bin/../../lib/gcc/pic32mx/4.5.2/../../../../pic32mx/lib/libpic32.a(vector59.o)

.text%z236      0x00000000        0x0
 .text          0x00000000        0x0 /Applications/microchip/xc32/v1.32/bin/bin/../../lib/gcc/pic32mx/4.5.2/../../../../pic32mx/lib/libpic32.a(vector58.o)

.text%z237      0x00000000        0x0
 .text          0x00000000        0x0 /Applications/microchip/xc32/v1.32/bin/bin/../../lib/gcc/pic32mx/4.5.2/../../../../pic32mx/lib/libpic32.a(vector57.o)

.text%z238      0x00000000        0x0
 .text          0x00000000        0x0 /Applications/microchip/xc32/v1.32/bin/bin/../../lib/gcc/pic32mx/4.5.2/../../../../pic32mx/lib/libpic32.a(vector56.o)

.text%z239      0x00000000        0x0
 .text          0x00000000        0x0 /Applications/microchip/xc32/v1.32/bin/bin/../../lib/gcc/pic32mx/4.5.2/../../../../pic32mx/lib/libpic32.a(vector55.o)

.text%z240      0x00000000        0x0
 .text          0x00000000        0x0 /Applications/microchip/xc32/v1.32/bin/bin/../../lib/gcc/pic32mx/4.5.2/../../../../pic32mx/lib/libpic32.a(vector54.o)

.text%z241      0x00000000        0x0
 .text          0x00000000        0x0 /Applications/microchip/xc32/v1.32/bin/bin/../../lib/gcc/pic32mx/4.5.2/../../../../pic32mx/lib/libpic32.a(vector53.o)

.text%z242      0x00000000        0x0
 .text          0x00000000        0x0 /Applications/microchip/xc32/v1.32/bin/bin/../../lib/gcc/pic32mx/4.5.2/../../../../pic32mx/lib/libpic32.a(vector52.o)

.text%z243      0x00000000        0x0
 .text          0x00000000        0x0 /Applications/microchip/xc32/v1.32/bin/bin/../../lib/gcc/pic32mx/4.5.2/../../../../pic32mx/lib/libpic32.a(vector51.o)

.text%z244      0x00000000        0x0
 .text          0x00000000        0x0 /Applications/microchip/xc32/v1.32/bin/bin/../../lib/gcc/pic32mx/4.5.2/../../../../pic32mx/lib/libpic32.a(vector50.o)

.text%z245      0x00000000        0x0
 .text          0x00000000        0x0 /Applications/microchip/xc32/v1.32/bin/bin/../../lib/gcc/pic32mx/4.5.2/../../../../pic32mx/lib/libpic32.a(vector49.o)

.text%z246      0x00000000        0x0
 .text          0x00000000        0x0 /Applications/microchip/xc32/v1.32/bin/bin/../../lib/gcc/pic32mx/4.5.2/../../../../pic32mx/lib/libpic32.a(vector48.o)

.text%z247      0x00000000        0x0
 .text          0x00000000        0x0 /Applications/microchip/xc32/v1.32/bin/bin/../../lib/gcc/pic32mx/4.5.2/../../../../pic32mx/lib/libpic32.a(vector47.o)

.text%z248      0x00000000        0x0
 .text          0x00000000        0x0 /Applications/microchip/xc32/v1.32/bin/bin/../../lib/gcc/pic32mx/4.5.2/../../../../pic32mx/lib/libpic32.a(vector46.o)

.text%z249      0x00000000        0x0
 .text          0x00000000        0x0 /Applications/microchip/xc32/v1.32/bin/bin/../../lib/gcc/pic32mx/4.5.2/../../../../pic32mx/lib/libpic32.a(vector45.o)

.text%z250      0x00000000        0x0
 .text          0x00000000        0x0 /Applications/microchip/xc32/v1.32/bin/bin/../../lib/gcc/pic32mx/4.5.2/../../../../pic32mx/lib/libpic32.a(vector44.o)

.text%z251      0x00000000        0x0
 .text          0x00000000        0x0 /Applications/microchip/xc32/v1.32/bin/bin/../../lib/gcc/pic32mx/4.5.2/../../../../pic32mx/lib/libpic32.a(vector43.o)

.text%z252      0x00000000        0x0
 .text          0x00000000        0x0 /Applications/microchip/xc32/v1.32/bin/bin/../../lib/gcc/pic32mx/4.5.2/../../../../pic32mx/lib/libpic32.a(vector42.o)

.text%z253      0x00000000        0x0
 .text          0x00000000        0x0 /Applications/microchip/xc32/v1.32/bin/bin/../../lib/gcc/pic32mx/4.5.2/../../../../pic32mx/lib/libpic32.a(vector41.o)

.text%z254      0x00000000        0x0
 .text          0x00000000        0x0 /Applications/microchip/xc32/v1.32/bin/bin/../../lib/gcc/pic32mx/4.5.2/../../../../pic32mx/lib/libpic32.a(vector40.o)

.text%z255      0x00000000        0x0
 .text          0x00000000        0x0 /Applications/microchip/xc32/v1.32/bin/bin/../../lib/gcc/pic32mx/4.5.2/../../../../pic32mx/lib/libpic32.a(vector39.o)

.text%z256      0x00000000        0x0
 .text          0x00000000        0x0 /Applications/microchip/xc32/v1.32/bin/bin/../../lib/gcc/pic32mx/4.5.2/../../../../pic32mx/lib/libpic32.a(vector38.o)

.text%z257      0x00000000        0x0
 .text          0x00000000        0x0 /Applications/microchip/xc32/v1.32/bin/bin/../../lib/gcc/pic32mx/4.5.2/../../../../pic32mx/lib/libpic32.a(vector37.o)

.text%z258      0x00000000        0x0
 .text          0x00000000        0x0 /Applications/microchip/xc32/v1.32/bin/bin/../../lib/gcc/pic32mx/4.5.2/../../../../pic32mx/lib/libpic32.a(vector36.o)

.text%z259      0x00000000        0x0
 .text          0x00000000        0x0 /Applications/microchip/xc32/v1.32/bin/bin/../../lib/gcc/pic32mx/4.5.2/../../../../pic32mx/lib/libpic32.a(vector35.o)

.text%z260      0x00000000        0x0
 .text          0x00000000        0x0 /Applications/microchip/xc32/v1.32/bin/bin/../../lib/gcc/pic32mx/4.5.2/../../../../pic32mx/lib/libpic32.a(vector34.o)

.text%z261      0x00000000        0x0
 .text          0x00000000        0x0 /Applications/microchip/xc32/v1.32/bin/bin/../../lib/gcc/pic32mx/4.5.2/../../../../pic32mx/lib/libpic32.a(vector33.o)

.text%z262      0x00000000        0x0
 .text          0x00000000        0x0 /Applications/microchip/xc32/v1.32/bin/bin/../../lib/gcc/pic32mx/4.5.2/../../../../pic32mx/lib/libpic32.a(vector31.o)

.text%z263      0x00000000        0x0
 .text          0x00000000        0x0 /Applications/microchip/xc32/v1.32/bin/bin/../../lib/gcc/pic32mx/4.5.2/../../../../pic32mx/lib/libpic32.a(vector30.o)

.text%z264      0x00000000        0x0
 .text          0x00000000        0x0 /Applications/microchip/xc32/v1.32/bin/bin/../../lib/gcc/pic32mx/4.5.2/../../../../pic32mx/lib/libpic32.a(vector29.o)

.text%z265      0x00000000        0x0
 .text          0x00000000        0x0 /Applications/microchip/xc32/v1.32/bin/bin/../../lib/gcc/pic32mx/4.5.2/../../../../pic32mx/lib/libpic32.a(vector28.o)

.text%z266      0x00000000        0x0
 .text          0x00000000        0x0 /Applications/microchip/xc32/v1.32/bin/bin/../../lib/gcc/pic32mx/4.5.2/../../../../pic32mx/lib/libpic32.a(vector27.o)

.text%z267      0x00000000        0x0
 .text          0x00000000        0x0 /Applications/microchip/xc32/v1.32/bin/bin/../../lib/gcc/pic32mx/4.5.2/../../../../pic32mx/lib/libpic32.a(vector26.o)

.text%z268      0x00000000        0x0
 .text          0x00000000        0x0 /Applications/microchip/xc32/v1.32/bin/bin/../../lib/gcc/pic32mx/4.5.2/../../../../pic32mx/lib/libpic32.a(vector25.o)

.text%z269      0x00000000        0x0
 .text          0x00000000        0x0 /Applications/microchip/xc32/v1.32/bin/bin/../../lib/gcc/pic32mx/4.5.2/../../../../pic32mx/lib/libpic32.a(vector24.o)

.text%z270      0x00000000        0x0
 .text          0x00000000        0x0 /Applications/microchip/xc32/v1.32/bin/bin/../../lib/gcc/pic32mx/4.5.2/../../../../pic32mx/lib/libpic32.a(vector23.o)

.text%z271      0x00000000        0x0
 .text          0x00000000        0x0 /Applications/microchip/xc32/v1.32/bin/bin/../../lib/gcc/pic32mx/4.5.2/../../../../pic32mx/lib/libpic32.a(vector22.o)

.text%z272      0x00000000        0x0
 .text          0x00000000        0x0 /Applications/microchip/xc32/v1.32/bin/bin/../../lib/gcc/pic32mx/4.5.2/../../../../pic32mx/lib/libpic32.a(vector21.o)

.text%z273      0x00000000        0x0
 .text          0x00000000        0x0 /Applications/microchip/xc32/v1.32/bin/bin/../../lib/gcc/pic32mx/4.5.2/../../../../pic32mx/lib/libpic32.a(vector20.o)

.text%z274      0x00000000        0x0
 .text          0x00000000        0x0 /Applications/microchip/xc32/v1.32/bin/bin/../../lib/gcc/pic32mx/4.5.2/../../../../pic32mx/lib/libpic32.a(vector19.o)

.text%z275      0x00000000        0x0
 .text          0x00000000        0x0 /Applications/microchip/xc32/v1.32/bin/bin/../../lib/gcc/pic32mx/4.5.2/../../../../pic32mx/lib/libpic32.a(vector18.o)

.text%z276      0x00000000        0x0
 .text          0x00000000        0x0 /Applications/microchip/xc32/v1.32/bin/bin/../../lib/gcc/pic32mx/4.5.2/../../../../pic32mx/lib/libpic32.a(vector17.o)

.text%z277      0x00000000        0x0
 .text          0x00000000        0x0 /Applications/microchip/xc32/v1.32/bin/bin/../../lib/gcc/pic32mx/4.5.2/../../../../pic32mx/lib/libpic32.a(vector15.o)

.text%z278      0x00000000        0x0
 .text          0x00000000        0x0 /Applications/microchip/xc32/v1.32/bin/bin/../../lib/gcc/pic32mx/4.5.2/../../../../pic32mx/lib/libpic32.a(vector14.o)

.text%z279      0x00000000        0x0
 .text          0x00000000        0x0 /Applications/microchip/xc32/v1.32/bin/bin/../../lib/gcc/pic32mx/4.5.2/../../../../pic32mx/lib/libpic32.a(vector13.o)

.text%z280      0x00000000        0x0
 .text          0x00000000        0x0 /Applications/microchip/xc32/v1.32/bin/bin/../../lib/gcc/pic32mx/4.5.2/../../../../pic32mx/lib/libpic32.a(vector11.o)

.text%z281      0x00000000        0x0
 .text          0x00000000        0x0 /Applications/microchip/xc32/v1.32/bin/bin/../../lib/gcc/pic32mx/4.5.2/../../../../pic32mx/lib/libpic32.a(vector10.o)

.text%z282      0x00000000        0x0
 .text          0x00000000        0x0 /Applications/microchip/xc32/v1.32/bin/bin/../../lib/gcc/pic32mx/4.5.2/../../../../pic32mx/lib/libpic32.a(vector9.o)

.text%z283      0x00000000        0x0
 .text          0x00000000        0x0 /Applications/microchip/xc32/v1.32/bin/bin/../../lib/gcc/pic32mx/4.5.2/../../../../pic32mx/lib/libpic32.a(vector7.o)

.text%z284      0x00000000        0x0
 .text          0x00000000        0x0 /Applications/microchip/xc32/v1.32/bin/bin/../../lib/gcc/pic32mx/4.5.2/../../../../pic32mx/lib/libpic32.a(vector6.o)

.text%z285      0x00000000        0x0
 .text          0x00000000        0x0 /Applications/microchip/xc32/v1.32/bin/bin/../../lib/gcc/pic32mx/4.5.2/../../../../pic32mx/lib/libpic32.a(vector5.o)

.text%z286      0x00000000        0x0
 .text          0x00000000        0x0 /Applications/microchip/xc32/v1.32/bin/bin/../../lib/gcc/pic32mx/4.5.2/../../../../pic32mx/lib/libpic32.a(vector3.o)

.text%z287      0x00000000        0x0
 .text          0x00000000        0x0 /Applications/microchip/xc32/v1.32/bin/bin/../../lib/gcc/pic32mx/4.5.2/../../../../pic32mx/lib/libpic32.a(vector2.o)

.text%z288      0x00000000        0x0
 .text          0x00000000        0x0 /Applications/microchip/xc32/v1.32/bin/bin/../../lib/gcc/pic32mx/4.5.2/../../../../pic32mx/lib/libpic32.a(vector0.o)

.text%z289      0x00000000        0x0
 .text          0x00000000        0x0 /Applications/microchip/xc32/v1.32/bin/bin/../../lib/gcc/pic32mx/4.5.2/../../../../pic32mx/lib/libpic32.a(general-exception.o)

.text%z290      0x00000000        0x0
 .text          0x00000000        0x0 /Applications/microchip/xc32/v1.32/bin/bin/../../lib/gcc/pic32mx/4.5.2/../../../../pic32mx/lib/libpic32.a(default-on-bootstrap.o)

.text%z291      0x00000000        0x0
 .text          0x00000000        0x0 /Applications/microchip/xc32/v1.32/bin/bin/../../lib/gcc/pic32mx/4.5.2/../../../../pic32mx/lib/libpic32.a(default-on-reset.o)

.text%z292      0x00000000        0x0
 .text          0x00000000        0x0 /Applications/microchip/xc32/v1.32/bin/bin/../../lib/gcc/pic32mx/4.5.2/../../../../pic32mx/lib/libpic32.a(default-bootstrap-exception-handler.o)

.text%z293      0x00000000        0x0
 .text          0x00000000        0x0 /Applications/microchip/xc32/v1.32/bin/bin/../../lib/gcc/pic32mx/4.5.2/../../../../pic32mx/lib/libmchp_peripheral_32MX270F256D.a(uart_lib.o)

.text%z294      0x00000000        0x0
 .text          0x00000000        0x0 /Applications/microchip/xc32/v1.32/bin/bin/../../lib/gcc/pic32mx/4.5.2/../../../../pic32mx/lib/libmchp_peripheral_32MX270F256D.a(int_tbl_lib.o)

.text%z295      0x00000000        0x0
 .text          0x00000000        0x0 /Applications/microchip/xc32/v1.32/bin/bin/../../lib/gcc/pic32mx/4.5.2/../../../../pic32mx/lib/libmchp_peripheral_32MX270F256D.a(int_restore_interrupts_lib.o)

.text%z296      0x00000000        0x0
 .text          0x00000000        0x0 /Applications/microchip/xc32/v1.32/bin/bin/../../lib/gcc/pic32mx/4.5.2/../../../../pic32mx/lib/libmchp_peripheral_32MX270F256D.a(int_disable_interrupts_lib.o)

.text%z297      0x00000000        0x0
 .text          0x00000000        0x0 /Applications/microchip/xc32/v1.32/bin/bin/../../lib/gcc/pic32mx/4.5.2/../../../../pic32mx/lib/libmchp_peripheral_32MX270F256D.a(int_enable_interrupts_lib.o)

.text%z298      0x00000000        0x0
 .text          0x00000000        0x0 /Applications/microchip/xc32/v1.32/bin/bin/../../lib/gcc/pic32mx/4.5.2/../../../../pic32mx/lib/libmchp_peripheral_32MX270F256D.a(int_configure_system_lib.o)

.text%z299      0x00000000        0x0
 .text          0x00000000        0x0 /Applications/microchip/xc32/v1.32/bin/bin/../../lib/gcc/pic32mx/4.5.2/../../../../pic32mx/lib/./proc/32MX270F256D/processor.o

.text%z300      0x00000000        0x0
 .text          0x00000000        0x0 /Applications/microchip/xc32/v1.32/bin/bin/../../lib/gcc/pic32mx/4.5.2/../../../../pic32mx/lib/./proc/32MX270F256D/default_isr_vectors.o

.text%z301      0x00000000        0x0
 .text          0x00000000        0x0 /Applications/microchip/xc32/v1.32/bin/bin/../../lib/gcc/pic32mx/4.5.2/../../../../pic32mx/lib/debug-exception-return.o

.text%z302      0x00000000        0x0
 .text          0x00000000        0x0 /Applications/microchip/xc32/v1.32/bin/bin/../../lib/gcc/pic32mx/4.5.2/../../../../pic32mx/lib/./proc/32MX270F256D/crt0_mips32r2.o
